
I2C_TWI_BASED.elf:     file format elf32-avr

Sections:
Idx Name          Size      VMA       LMA       File off  Algn
  0 .text         00000cf0  00000000  00000000  00000094  2**1
                  CONTENTS, ALLOC, LOAD, READONLY, CODE
  1 .data         0000003c  00800060  00000cf0  00000d84  2**0
                  CONTENTS, ALLOC, LOAD, DATA
  2 .bss          00000002  0080009c  0080009c  00000dc0  2**0
                  ALLOC
  3 .comment      0000005c  00000000  00000000  00000dc0  2**0
                  CONTENTS, READONLY
  4 .debug_aranges 000000d0  00000000  00000000  00000e1c  2**0
                  CONTENTS, READONLY, DEBUGGING
  5 .debug_info   00000fbd  00000000  00000000  00000eec  2**0
                  CONTENTS, READONLY, DEBUGGING
  6 .debug_abbrev 000005b9  00000000  00000000  00001ea9  2**0
                  CONTENTS, READONLY, DEBUGGING
  7 .debug_line   000005d0  00000000  00000000  00002462  2**0
                  CONTENTS, READONLY, DEBUGGING
  8 .debug_frame  000001bc  00000000  00000000  00002a34  2**2
                  CONTENTS, READONLY, DEBUGGING
  9 .debug_str    000003ab  00000000  00000000  00002bf0  2**0
                  CONTENTS, READONLY, DEBUGGING
 10 .debug_loc    00000631  00000000  00000000  00002f9b  2**0
                  CONTENTS, READONLY, DEBUGGING
 11 .debug_ranges 00000090  00000000  00000000  000035cc  2**0
                  CONTENTS, READONLY, DEBUGGING

Disassembly of section .text:

00000000 <__vectors>:
   0:	12 c0       	rjmp	.+36     	; 0x26 <__ctors_end>
   2:	2c c0       	rjmp	.+88     	; 0x5c <__bad_interrupt>
   4:	2b c0       	rjmp	.+86     	; 0x5c <__bad_interrupt>
   6:	2a c0       	rjmp	.+84     	; 0x5c <__bad_interrupt>
   8:	29 c0       	rjmp	.+82     	; 0x5c <__bad_interrupt>
   a:	28 c0       	rjmp	.+80     	; 0x5c <__bad_interrupt>
   c:	27 c0       	rjmp	.+78     	; 0x5c <__bad_interrupt>
   e:	26 c0       	rjmp	.+76     	; 0x5c <__bad_interrupt>
  10:	25 c0       	rjmp	.+74     	; 0x5c <__bad_interrupt>
  12:	24 c0       	rjmp	.+72     	; 0x5c <__bad_interrupt>
  14:	23 c0       	rjmp	.+70     	; 0x5c <__bad_interrupt>
  16:	22 c0       	rjmp	.+68     	; 0x5c <__bad_interrupt>
  18:	21 c0       	rjmp	.+66     	; 0x5c <__bad_interrupt>
  1a:	20 c0       	rjmp	.+64     	; 0x5c <__bad_interrupt>
  1c:	1f c0       	rjmp	.+62     	; 0x5c <__bad_interrupt>
  1e:	1e c0       	rjmp	.+60     	; 0x5c <__bad_interrupt>
  20:	1d c0       	rjmp	.+58     	; 0x5c <__bad_interrupt>
  22:	1c c0       	rjmp	.+56     	; 0x5c <__bad_interrupt>
  24:	1b c0       	rjmp	.+54     	; 0x5c <__bad_interrupt>

00000026 <__ctors_end>:
  26:	11 24       	eor	r1, r1
  28:	1f be       	out	0x3f, r1	; 63
  2a:	cf e5       	ldi	r28, 0x5F	; 95
  2c:	d4 e0       	ldi	r29, 0x04	; 4
  2e:	de bf       	out	0x3e, r29	; 62
  30:	cd bf       	out	0x3d, r28	; 61

00000032 <__do_copy_data>:
  32:	10 e0       	ldi	r17, 0x00	; 0
  34:	a0 e6       	ldi	r26, 0x60	; 96
  36:	b0 e0       	ldi	r27, 0x00	; 0
  38:	e0 ef       	ldi	r30, 0xF0	; 240
  3a:	fc e0       	ldi	r31, 0x0C	; 12
  3c:	02 c0       	rjmp	.+4      	; 0x42 <__SREG__+0x3>
  3e:	05 90       	lpm	r0, Z+
  40:	0d 92       	st	X+, r0
  42:	ac 39       	cpi	r26, 0x9C	; 156
  44:	b1 07       	cpc	r27, r17
  46:	d9 f7       	brne	.-10     	; 0x3e <__SP_H__>

00000048 <__do_clear_bss>:
  48:	20 e0       	ldi	r18, 0x00	; 0
  4a:	ac e9       	ldi	r26, 0x9C	; 156
  4c:	b0 e0       	ldi	r27, 0x00	; 0
  4e:	01 c0       	rjmp	.+2      	; 0x52 <.do_clear_bss_start>

00000050 <.do_clear_bss_loop>:
  50:	1d 92       	st	X+, r1

00000052 <.do_clear_bss_start>:
  52:	ae 39       	cpi	r26, 0x9E	; 158
  54:	b2 07       	cpc	r27, r18
  56:	e1 f7       	brne	.-8      	; 0x50 <.do_clear_bss_loop>
  58:	ae d2       	rcall	.+1372   	; 0x5b6 <main>
  5a:	48 c6       	rjmp	.+3216   	; 0xcec <_exit>

0000005c <__bad_interrupt>:
  5c:	d1 cf       	rjmp	.-94     	; 0x0 <__vectors>

0000005e <Data2Bcd>:
	
	return GetDateTime;
}

void Data2Bcd(DataDateTime *pInputData, BcdDateTime *pOutputData)
{
  5e:	ef 92       	push	r14
  60:	ff 92       	push	r15
  62:	0f 93       	push	r16
  64:	1f 93       	push	r17
  66:	cf 93       	push	r28
  68:	df 93       	push	r29
  6a:	8c 01       	movw	r16, r24
  6c:	eb 01       	movw	r28, r22
	char *ptoken;
	
	/* Parsing Input Time Data */
	ptoken = strtok((char*)pInputData->Time, ":");
  6e:	60 e6       	ldi	r22, 0x60	; 96
  70:	70 e0       	ldi	r23, 0x00	; 0
  72:	0f 96       	adiw	r24, 0x0f	; 15
  74:	40 d3       	rcall	.+1664   	; 0x6f6 <strtok>
	pOutputData->Hrs = DecimalToBCD(atoi(ptoken));
  76:	22 d3       	rcall	.+1604   	; 0x6bc <atoi>
	sprintf((char*)pOutputData->Time, "%02d:%02d:%02d%s", BCDToDecimal(pInputData->Hrs), BCDToDecimal(pInputData->Mins), BCDToDecimal(pInputData->Secs), TimeFormat);
}

static int DecimalToBCD(int Decimal)
{
	return (((Decimal/10) << 4) | (Decimal % 10));
  78:	0f 2e       	mov	r0, r31
  7a:	fa e0       	ldi	r31, 0x0A	; 10
  7c:	ef 2e       	mov	r14, r31
  7e:	f1 2c       	mov	r15, r1
  80:	f0 2d       	mov	r31, r0
  82:	b7 01       	movw	r22, r14
  84:	f4 d2       	rcall	.+1512   	; 0x66e <__divmodhi4>
  86:	62 95       	swap	r22
  88:	72 95       	swap	r23
  8a:	70 7f       	andi	r23, 0xF0	; 240
  8c:	76 27       	eor	r23, r22
  8e:	60 7f       	andi	r22, 0xF0	; 240
  90:	76 27       	eor	r23, r22
  92:	68 2b       	or	r22, r24
  94:	79 2b       	or	r23, r25
{
	char *ptoken;
	
	/* Parsing Input Time Data */
	ptoken = strtok((char*)pInputData->Time, ":");
	pOutputData->Hrs = DecimalToBCD(atoi(ptoken));
  96:	6a 83       	std	Y+2, r22	; 0x02
	ptoken = strtok(NULL, ":");
  98:	60 e6       	ldi	r22, 0x60	; 96
  9a:	70 e0       	ldi	r23, 0x00	; 0
  9c:	80 e0       	ldi	r24, 0x00	; 0
  9e:	90 e0       	ldi	r25, 0x00	; 0
  a0:	2a d3       	rcall	.+1620   	; 0x6f6 <strtok>
	pOutputData->Mins = DecimalToBCD(atoi(ptoken));
  a2:	0c d3       	rcall	.+1560   	; 0x6bc <atoi>
	sprintf((char*)pOutputData->Time, "%02d:%02d:%02d%s", BCDToDecimal(pInputData->Hrs), BCDToDecimal(pInputData->Mins), BCDToDecimal(pInputData->Secs), TimeFormat);
}

static int DecimalToBCD(int Decimal)
{
	return (((Decimal/10) << 4) | (Decimal % 10));
  a4:	b7 01       	movw	r22, r14
  a6:	e3 d2       	rcall	.+1478   	; 0x66e <__divmodhi4>
  a8:	62 95       	swap	r22
  aa:	72 95       	swap	r23
  ac:	70 7f       	andi	r23, 0xF0	; 240
  ae:	76 27       	eor	r23, r22
  b0:	60 7f       	andi	r22, 0xF0	; 240
  b2:	76 27       	eor	r23, r22
  b4:	68 2b       	or	r22, r24
  b6:	79 2b       	or	r23, r25
	
	/* Parsing Input Time Data */
	ptoken = strtok((char*)pInputData->Time, ":");
	pOutputData->Hrs = DecimalToBCD(atoi(ptoken));
	ptoken = strtok(NULL, ":");
	pOutputData->Mins = DecimalToBCD(atoi(ptoken));
  b8:	69 83       	std	Y+1, r22	; 0x01
	ptoken = strtok(NULL, " ");
  ba:	62 e6       	ldi	r22, 0x62	; 98
  bc:	70 e0       	ldi	r23, 0x00	; 0
  be:	80 e0       	ldi	r24, 0x00	; 0
  c0:	90 e0       	ldi	r25, 0x00	; 0
  c2:	19 d3       	rcall	.+1586   	; 0x6f6 <strtok>
	pOutputData->Secs = DecimalToBCD(atoi(ptoken));
  c4:	fb d2       	rcall	.+1526   	; 0x6bc <atoi>
	sprintf((char*)pOutputData->Time, "%02d:%02d:%02d%s", BCDToDecimal(pInputData->Hrs), BCDToDecimal(pInputData->Mins), BCDToDecimal(pInputData->Secs), TimeFormat);
}

static int DecimalToBCD(int Decimal)
{
	return (((Decimal/10) << 4) | (Decimal % 10));
  c6:	b7 01       	movw	r22, r14
  c8:	d2 d2       	rcall	.+1444   	; 0x66e <__divmodhi4>
  ca:	62 95       	swap	r22
  cc:	72 95       	swap	r23
  ce:	70 7f       	andi	r23, 0xF0	; 240
  d0:	76 27       	eor	r23, r22
  d2:	60 7f       	andi	r22, 0xF0	; 240
  d4:	76 27       	eor	r23, r22
  d6:	68 2b       	or	r22, r24
  d8:	79 2b       	or	r23, r25
	ptoken = strtok((char*)pInputData->Time, ":");
	pOutputData->Hrs = DecimalToBCD(atoi(ptoken));
	ptoken = strtok(NULL, ":");
	pOutputData->Mins = DecimalToBCD(atoi(ptoken));
	ptoken = strtok(NULL, " ");
	pOutputData->Secs = DecimalToBCD(atoi(ptoken));
  da:	68 83       	st	Y, r22

	/* Switching between 12 or 24 Hrs Format based on input */
	ptoken = strtok(NULL, " ");
  dc:	62 e6       	ldi	r22, 0x62	; 98
  de:	70 e0       	ldi	r23, 0x00	; 0
  e0:	80 e0       	ldi	r24, 0x00	; 0
  e2:	90 e0       	ldi	r25, 0x00	; 0
  e4:	08 d3       	rcall	.+1552   	; 0x6f6 <strtok>
	if(ptoken != NULL)
  e6:	00 97       	sbiw	r24, 0x00	; 0
  e8:	61 f0       	breq	.+24     	; 0x102 <Data2Bcd+0xa4>
	{
		if(!(strcmp(ptoken, "PM")))
  ea:	6f e8       	ldi	r22, 0x8F	; 143
  ec:	70 e0       	ldi	r23, 0x00	; 0
  ee:	07 d3       	rcall	.+1550   	; 0x6fe <strcmp>
  f0:	89 2b       	or	r24, r25
  f2:	21 f4       	brne	.+8      	; 0xfc <Data2Bcd+0x9e>
		{
			pOutputData->Hrs |= 0x60;
  f4:	8a 81       	ldd	r24, Y+2	; 0x02
  f6:	80 66       	ori	r24, 0x60	; 96
  f8:	8a 83       	std	Y+2, r24	; 0x02
  fa:	03 c0       	rjmp	.+6      	; 0x102 <Data2Bcd+0xa4>
		}
		else
		{
			pOutputData->Hrs |= 0x40;
  fc:	8a 81       	ldd	r24, Y+2	; 0x02
  fe:	80 64       	ori	r24, 0x40	; 64
 100:	8a 83       	std	Y+2, r24	; 0x02
		}
	}
	
	/* Setting Day No */
	pOutputData->Day = pInputData->eDay;
 102:	f8 01       	movw	r30, r16
 104:	86 8d       	ldd	r24, Z+30	; 0x1e
 106:	8b 83       	std	Y+3, r24	; 0x03

	/* Parsing Input Date Data */
	ptoken = strtok((char*)pInputData->Date, "-");
 108:	64 e6       	ldi	r22, 0x64	; 100
 10a:	70 e0       	ldi	r23, 0x00	; 0
 10c:	c8 01       	movw	r24, r16
 10e:	f3 d2       	rcall	.+1510   	; 0x6f6 <strtok>
	pOutputData->Date = DecimalToBCD(atoi(ptoken));
 110:	d5 d2       	rcall	.+1450   	; 0x6bc <atoi>
	sprintf((char*)pOutputData->Time, "%02d:%02d:%02d%s", BCDToDecimal(pInputData->Hrs), BCDToDecimal(pInputData->Mins), BCDToDecimal(pInputData->Secs), TimeFormat);
}

static int DecimalToBCD(int Decimal)
{
	return (((Decimal/10) << 4) | (Decimal % 10));
 112:	0a e0       	ldi	r16, 0x0A	; 10
 114:	10 e0       	ldi	r17, 0x00	; 0
 116:	b8 01       	movw	r22, r16
 118:	aa d2       	rcall	.+1364   	; 0x66e <__divmodhi4>
 11a:	62 95       	swap	r22
 11c:	72 95       	swap	r23
 11e:	70 7f       	andi	r23, 0xF0	; 240
 120:	76 27       	eor	r23, r22
 122:	60 7f       	andi	r22, 0xF0	; 240
 124:	76 27       	eor	r23, r22
 126:	68 2b       	or	r22, r24
 128:	79 2b       	or	r23, r25
	/* Setting Day No */
	pOutputData->Day = pInputData->eDay;

	/* Parsing Input Date Data */
	ptoken = strtok((char*)pInputData->Date, "-");
	pOutputData->Date = DecimalToBCD(atoi(ptoken));
 12a:	6c 83       	std	Y+4, r22	; 0x04
	ptoken = strtok(NULL, "-");
 12c:	64 e6       	ldi	r22, 0x64	; 100
 12e:	70 e0       	ldi	r23, 0x00	; 0
 130:	80 e0       	ldi	r24, 0x00	; 0
 132:	90 e0       	ldi	r25, 0x00	; 0
 134:	e0 d2       	rcall	.+1472   	; 0x6f6 <strtok>
	pOutputData->Months = DecimalToBCD(atoi(ptoken));
 136:	c2 d2       	rcall	.+1412   	; 0x6bc <atoi>
	sprintf((char*)pOutputData->Time, "%02d:%02d:%02d%s", BCDToDecimal(pInputData->Hrs), BCDToDecimal(pInputData->Mins), BCDToDecimal(pInputData->Secs), TimeFormat);
}

static int DecimalToBCD(int Decimal)
{
	return (((Decimal/10) << 4) | (Decimal % 10));
 138:	b8 01       	movw	r22, r16
 13a:	99 d2       	rcall	.+1330   	; 0x66e <__divmodhi4>
 13c:	62 95       	swap	r22
 13e:	72 95       	swap	r23
 140:	70 7f       	andi	r23, 0xF0	; 240
 142:	76 27       	eor	r23, r22
 144:	60 7f       	andi	r22, 0xF0	; 240
 146:	76 27       	eor	r23, r22
 148:	68 2b       	or	r22, r24
 14a:	79 2b       	or	r23, r25

	/* Parsing Input Date Data */
	ptoken = strtok((char*)pInputData->Date, "-");
	pOutputData->Date = DecimalToBCD(atoi(ptoken));
	ptoken = strtok(NULL, "-");
	pOutputData->Months = DecimalToBCD(atoi(ptoken));
 14c:	6d 83       	std	Y+5, r22	; 0x05
	ptoken = strtok(NULL, " ");
 14e:	62 e6       	ldi	r22, 0x62	; 98
 150:	70 e0       	ldi	r23, 0x00	; 0
 152:	80 e0       	ldi	r24, 0x00	; 0
 154:	90 e0       	ldi	r25, 0x00	; 0
 156:	cf d2       	rcall	.+1438   	; 0x6f6 <strtok>
	pOutputData->Year = DecimalToBCD(atoi(ptoken));	
 158:	b1 d2       	rcall	.+1378   	; 0x6bc <atoi>
	sprintf((char*)pOutputData->Time, "%02d:%02d:%02d%s", BCDToDecimal(pInputData->Hrs), BCDToDecimal(pInputData->Mins), BCDToDecimal(pInputData->Secs), TimeFormat);
}

static int DecimalToBCD(int Decimal)
{
	return (((Decimal/10) << 4) | (Decimal % 10));
 15a:	b8 01       	movw	r22, r16
 15c:	88 d2       	rcall	.+1296   	; 0x66e <__divmodhi4>
 15e:	62 95       	swap	r22
 160:	72 95       	swap	r23
 162:	70 7f       	andi	r23, 0xF0	; 240
 164:	76 27       	eor	r23, r22
 166:	60 7f       	andi	r22, 0xF0	; 240
 168:	76 27       	eor	r23, r22
 16a:	68 2b       	or	r22, r24
 16c:	79 2b       	or	r23, r25
	ptoken = strtok((char*)pInputData->Date, "-");
	pOutputData->Date = DecimalToBCD(atoi(ptoken));
	ptoken = strtok(NULL, "-");
	pOutputData->Months = DecimalToBCD(atoi(ptoken));
	ptoken = strtok(NULL, " ");
	pOutputData->Year = DecimalToBCD(atoi(ptoken));	
 16e:	6e 83       	std	Y+6, r22	; 0x06
}
 170:	df 91       	pop	r29
 172:	cf 91       	pop	r28
 174:	1f 91       	pop	r17
 176:	0f 91       	pop	r16
 178:	ff 90       	pop	r15
 17a:	ef 90       	pop	r14
 17c:	08 95       	ret

0000017e <DS1307_Write>:

static int DecimalToBCD(int Decimal);
static int BCDToDecimal(int BCD);

void DS1307_Write(DataDateTime SetDateTime)
{	
 17e:	cf 93       	push	r28
 180:	df 93       	push	r29
 182:	cd b7       	in	r28, 0x3d	; 61
 184:	de b7       	in	r29, 0x3e	; 62
 186:	28 97       	sbiw	r28, 0x08	; 8
 188:	0f b6       	in	r0, 0x3f	; 63
 18a:	f8 94       	cli
 18c:	de bf       	out	0x3e, r29	; 62
 18e:	0f be       	out	0x3f, r0	; 63
 190:	cd bf       	out	0x3d, r28	; 61
	BcdDateTime SetInputBcdFormat;
	
	/* Convert DataDateTime data into BCDFormat data */
	Data2Bcd(&SetDateTime, &SetInputBcdFormat);
 192:	be 01       	movw	r22, r28
 194:	6f 5f       	subi	r22, 0xFF	; 255
 196:	7f 4f       	sbci	r23, 0xFF	; 255
 198:	ce 01       	movw	r24, r28
 19a:	0d 96       	adiw	r24, 0x0d	; 13
 19c:	60 df       	rcall	.-320    	; 0x5e <Data2Bcd>
	
	/* Start I2C Transfer */
	I2C_start();
 19e:	7d d1       	rcall	.+762    	; 0x49a <I2C_start>
	
	/* Select Slave device to Write of Address D0H */
	I2C_write(WriteAddress, SLAVE_ADDRESS);
 1a0:	60 ed       	ldi	r22, 0xD0	; 208
 1a2:	80 e0       	ldi	r24, 0x00	; 0
 1a4:	84 d1       	rcall	.+776    	; 0x4ae <I2C_write>
	
	/* Set Reg Address to 00H */
	I2C_write(WriteData, SLAVE_REG_ADDRESS);
 1a6:	60 e0       	ldi	r22, 0x00	; 0
 1a8:	82 e0       	ldi	r24, 0x02	; 2
 1aa:	81 d1       	rcall	.+770    	; 0x4ae <I2C_write>
	
	/* Setting up Seconds */
	I2C_write(WriteData, SetInputBcdFormat.Secs);
 1ac:	69 81       	ldd	r22, Y+1	; 0x01
 1ae:	82 e0       	ldi	r24, 0x02	; 2
 1b0:	7e d1       	rcall	.+764    	; 0x4ae <I2C_write>
	
	/* Setting up Minutes */
	I2C_write(WriteData, SetInputBcdFormat.Mins);
 1b2:	6a 81       	ldd	r22, Y+2	; 0x02
 1b4:	82 e0       	ldi	r24, 0x02	; 2
 1b6:	7b d1       	rcall	.+758    	; 0x4ae <I2C_write>
	
	/* Setting up Hours */
	I2C_write(WriteData, SetInputBcdFormat.Hrs);
 1b8:	6b 81       	ldd	r22, Y+3	; 0x03
 1ba:	82 e0       	ldi	r24, 0x02	; 2
 1bc:	78 d1       	rcall	.+752    	; 0x4ae <I2C_write>
	
	/* Setting up Day */
	I2C_write(WriteData, SetInputBcdFormat.Day);
 1be:	6c 81       	ldd	r22, Y+4	; 0x04
 1c0:	82 e0       	ldi	r24, 0x02	; 2
 1c2:	75 d1       	rcall	.+746    	; 0x4ae <I2C_write>
	
	/* Setting up Date */
	I2C_write(WriteData, SetInputBcdFormat.Date);
 1c4:	6d 81       	ldd	r22, Y+5	; 0x05
 1c6:	82 e0       	ldi	r24, 0x02	; 2
 1c8:	72 d1       	rcall	.+740    	; 0x4ae <I2C_write>
	
	/* Setting up Months */
	I2C_write(WriteData, SetInputBcdFormat.Months);
 1ca:	6e 81       	ldd	r22, Y+6	; 0x06
 1cc:	82 e0       	ldi	r24, 0x02	; 2
 1ce:	6f d1       	rcall	.+734    	; 0x4ae <I2C_write>
	
	/* Setting up Year */
	I2C_write(WriteData, SetInputBcdFormat.Year);
 1d0:	6f 81       	ldd	r22, Y+7	; 0x07
 1d2:	82 e0       	ldi	r24, 0x02	; 2
 1d4:	6c d1       	rcall	.+728    	; 0x4ae <I2C_write>
	
	/* Stop I2C Transfer */
	I2C_stop();
 1d6:	a0 d1       	rcall	.+832    	; 0x518 <I2C_stop>
}
 1d8:	28 96       	adiw	r28, 0x08	; 8
 1da:	0f b6       	in	r0, 0x3f	; 63
 1dc:	f8 94       	cli
 1de:	de bf       	out	0x3e, r29	; 62
 1e0:	0f be       	out	0x3f, r0	; 63
 1e2:	cd bf       	out	0x3d, r28	; 61
 1e4:	df 91       	pop	r29
 1e6:	cf 91       	pop	r28
 1e8:	08 95       	ret

000001ea <Bcd2Data>:
	ptoken = strtok(NULL, " ");
	pOutputData->Year = DecimalToBCD(atoi(ptoken));	
}

void Bcd2Data(BcdDateTime *pInputData, DataDateTime *pOutputData)
{
 1ea:	ef 92       	push	r14
 1ec:	ff 92       	push	r15
 1ee:	0f 93       	push	r16
 1f0:	1f 93       	push	r17
 1f2:	cf 93       	push	r28
 1f4:	df 93       	push	r29
 1f6:	cd b7       	in	r28, 0x3d	; 61
 1f8:	de b7       	in	r29, 0x3e	; 62
 1fa:	2a 97       	sbiw	r28, 0x0a	; 10
 1fc:	0f b6       	in	r0, 0x3f	; 63
 1fe:	f8 94       	cli
 200:	de bf       	out	0x3e, r29	; 62
 202:	0f be       	out	0x3f, r0	; 63
 204:	cd bf       	out	0x3d, r28	; 61
 206:	8c 01       	movw	r16, r24
 208:	7b 01       	movw	r14, r22
	uint8_t TimeFormat[10]={0};
 20a:	fe 01       	movw	r30, r28
 20c:	31 96       	adiw	r30, 0x01	; 1
 20e:	8a e0       	ldi	r24, 0x0A	; 10
 210:	df 01       	movw	r26, r30
 212:	1d 92       	st	X+, r1
 214:	8a 95       	dec	r24
 216:	e9 f7       	brne	.-6      	; 0x212 <Bcd2Data+0x28>

	/* Storing Day No */
	pOutputData->eDay = pInputData->Day;
 218:	f8 01       	movw	r30, r16
 21a:	83 81       	ldd	r24, Z+3	; 0x03
 21c:	db 01       	movw	r26, r22
 21e:	5e 96       	adiw	r26, 0x1e	; 30
 220:	8c 93       	st	X, r24
		
	/* Framing Date String */
	sprintf((char*)pOutputData->Date, "%02d-%02d-%04d", BCDToDecimal(pInputData->Date), BCDToDecimal(pInputData->Months), (2000+BCDToDecimal(pInputData->Year)));
 222:	66 81       	ldd	r22, Z+6	; 0x06
 224:	55 81       	ldd	r21, Z+5	; 0x05
 226:	44 81       	ldd	r20, Z+4	; 0x04
 228:	26 2f       	mov	r18, r22
 22a:	30 e0       	ldi	r19, 0x00	; 0
	return (((Decimal/10) << 4) | (Decimal % 10));
}

static int BCDToDecimal(int BCD)
{
	return (((BCD>>4)*10) + (BCD & 0xF));
 22c:	35 95       	asr	r19
 22e:	27 95       	ror	r18
 230:	35 95       	asr	r19
 232:	27 95       	ror	r18
 234:	35 95       	asr	r19
 236:	27 95       	ror	r18
 238:	35 95       	asr	r19
 23a:	27 95       	ror	r18
 23c:	c9 01       	movw	r24, r18
 23e:	88 0f       	add	r24, r24
 240:	99 1f       	adc	r25, r25
 242:	22 0f       	add	r18, r18
 244:	33 1f       	adc	r19, r19
 246:	22 0f       	add	r18, r18
 248:	33 1f       	adc	r19, r19
 24a:	22 0f       	add	r18, r18
 24c:	33 1f       	adc	r19, r19
 24e:	82 0f       	add	r24, r18
 250:	93 1f       	adc	r25, r19
 252:	6f 70       	andi	r22, 0x0F	; 15
 254:	86 0f       	add	r24, r22
 256:	91 1d       	adc	r25, r1

	/* Storing Day No */
	pOutputData->eDay = pInputData->Day;
		
	/* Framing Date String */
	sprintf((char*)pOutputData->Date, "%02d-%02d-%04d", BCDToDecimal(pInputData->Date), BCDToDecimal(pInputData->Months), (2000+BCDToDecimal(pInputData->Year)));
 258:	80 53       	subi	r24, 0x30	; 48
 25a:	98 4f       	sbci	r25, 0xF8	; 248
 25c:	9f 93       	push	r25
 25e:	8f 93       	push	r24
 260:	25 2f       	mov	r18, r21
 262:	30 e0       	ldi	r19, 0x00	; 0
	return (((Decimal/10) << 4) | (Decimal % 10));
}

static int BCDToDecimal(int BCD)
{
	return (((BCD>>4)*10) + (BCD & 0xF));
 264:	35 95       	asr	r19
 266:	27 95       	ror	r18
 268:	35 95       	asr	r19
 26a:	27 95       	ror	r18
 26c:	35 95       	asr	r19
 26e:	27 95       	ror	r18
 270:	35 95       	asr	r19
 272:	27 95       	ror	r18
 274:	c9 01       	movw	r24, r18
 276:	88 0f       	add	r24, r24
 278:	99 1f       	adc	r25, r25
 27a:	22 0f       	add	r18, r18
 27c:	33 1f       	adc	r19, r19
 27e:	22 0f       	add	r18, r18
 280:	33 1f       	adc	r19, r19
 282:	22 0f       	add	r18, r18
 284:	33 1f       	adc	r19, r19
 286:	82 0f       	add	r24, r18
 288:	93 1f       	adc	r25, r19
 28a:	5f 70       	andi	r21, 0x0F	; 15
 28c:	85 0f       	add	r24, r21
 28e:	91 1d       	adc	r25, r1

	/* Storing Day No */
	pOutputData->eDay = pInputData->Day;
		
	/* Framing Date String */
	sprintf((char*)pOutputData->Date, "%02d-%02d-%04d", BCDToDecimal(pInputData->Date), BCDToDecimal(pInputData->Months), (2000+BCDToDecimal(pInputData->Year)));
 290:	9f 93       	push	r25
 292:	8f 93       	push	r24
 294:	24 2f       	mov	r18, r20
 296:	30 e0       	ldi	r19, 0x00	; 0
	return (((Decimal/10) << 4) | (Decimal % 10));
}

static int BCDToDecimal(int BCD)
{
	return (((BCD>>4)*10) + (BCD & 0xF));
 298:	35 95       	asr	r19
 29a:	27 95       	ror	r18
 29c:	35 95       	asr	r19
 29e:	27 95       	ror	r18
 2a0:	35 95       	asr	r19
 2a2:	27 95       	ror	r18
 2a4:	35 95       	asr	r19
 2a6:	27 95       	ror	r18
 2a8:	c9 01       	movw	r24, r18
 2aa:	88 0f       	add	r24, r24
 2ac:	99 1f       	adc	r25, r25
 2ae:	22 0f       	add	r18, r18
 2b0:	33 1f       	adc	r19, r19
 2b2:	22 0f       	add	r18, r18
 2b4:	33 1f       	adc	r19, r19
 2b6:	22 0f       	add	r18, r18
 2b8:	33 1f       	adc	r19, r19
 2ba:	82 0f       	add	r24, r18
 2bc:	93 1f       	adc	r25, r19
 2be:	4f 70       	andi	r20, 0x0F	; 15
 2c0:	84 0f       	add	r24, r20
 2c2:	91 1d       	adc	r25, r1

	/* Storing Day No */
	pOutputData->eDay = pInputData->Day;
		
	/* Framing Date String */
	sprintf((char*)pOutputData->Date, "%02d-%02d-%04d", BCDToDecimal(pInputData->Date), BCDToDecimal(pInputData->Months), (2000+BCDToDecimal(pInputData->Year)));
 2c4:	9f 93       	push	r25
 2c6:	8f 93       	push	r24
 2c8:	86 e6       	ldi	r24, 0x66	; 102
 2ca:	90 e0       	ldi	r25, 0x00	; 0
 2cc:	9f 93       	push	r25
 2ce:	8f 93       	push	r24
 2d0:	ff 92       	push	r15
 2d2:	ef 92       	push	r14
 2d4:	4c d2       	rcall	.+1176   	; 0x76e <sprintf>
	
	/* Refining the Data based on 12 or 24 hrs format */
	if((pInputData->Hrs & 0x40) == 0x40)
 2d6:	f8 01       	movw	r30, r16
 2d8:	22 81       	ldd	r18, Z+2	; 0x02
 2da:	0f b6       	in	r0, 0x3f	; 63
 2dc:	f8 94       	cli
 2de:	de bf       	out	0x3e, r29	; 62
 2e0:	0f be       	out	0x3f, r0	; 63
 2e2:	cd bf       	out	0x3d, r28	; 61
 2e4:	26 ff       	sbrs	r18, 6
 2e6:	17 c0       	rjmp	.+46     	; 0x316 <Bcd2Data+0x12c>
	{
		if((pInputData->Hrs & 0x20) == 0x20)
 2e8:	25 ff       	sbrs	r18, 5
 2ea:	09 c0       	rjmp	.+18     	; 0x2fe <Bcd2Data+0x114>
		{
			strcpy((char*)TimeFormat, " PM");
 2ec:	80 e2       	ldi	r24, 0x20	; 32
 2ee:	90 e5       	ldi	r25, 0x50	; 80
 2f0:	ad e4       	ldi	r26, 0x4D	; 77
 2f2:	b0 e0       	ldi	r27, 0x00	; 0
 2f4:	89 83       	std	Y+1, r24	; 0x01
 2f6:	9a 83       	std	Y+2, r25	; 0x02
 2f8:	ab 83       	std	Y+3, r26	; 0x03
 2fa:	bc 83       	std	Y+4, r27	; 0x04
 2fc:	08 c0       	rjmp	.+16     	; 0x30e <Bcd2Data+0x124>
		}
		else
		{
			strcpy((char*)TimeFormat, " AM");
 2fe:	40 e2       	ldi	r20, 0x20	; 32
 300:	51 e4       	ldi	r21, 0x41	; 65
 302:	6d e4       	ldi	r22, 0x4D	; 77
 304:	70 e0       	ldi	r23, 0x00	; 0
 306:	49 83       	std	Y+1, r20	; 0x01
 308:	5a 83       	std	Y+2, r21	; 0x02
 30a:	6b 83       	std	Y+3, r22	; 0x03
 30c:	7c 83       	std	Y+4, r23	; 0x04
		}
		pInputData->Hrs &= 0x1F;
 30e:	2f 71       	andi	r18, 0x1F	; 31
 310:	d8 01       	movw	r26, r16
 312:	12 96       	adiw	r26, 0x02	; 2
 314:	2c 93       	st	X, r18
	}
	
	/* Framing Time String */
	sprintf((char*)pOutputData->Time, "%02d:%02d:%02d%s", BCDToDecimal(pInputData->Hrs), BCDToDecimal(pInputData->Mins), BCDToDecimal(pInputData->Secs), TimeFormat);
 316:	f8 01       	movw	r30, r16
 318:	60 81       	ld	r22, Z
 31a:	51 81       	ldd	r21, Z+1	; 0x01
 31c:	42 81       	ldd	r20, Z+2	; 0x02
 31e:	ce 01       	movw	r24, r28
 320:	01 96       	adiw	r24, 0x01	; 1
 322:	9f 93       	push	r25
 324:	8f 93       	push	r24
 326:	26 2f       	mov	r18, r22
 328:	30 e0       	ldi	r19, 0x00	; 0
	return (((Decimal/10) << 4) | (Decimal % 10));
}

static int BCDToDecimal(int BCD)
{
	return (((BCD>>4)*10) + (BCD & 0xF));
 32a:	35 95       	asr	r19
 32c:	27 95       	ror	r18
 32e:	35 95       	asr	r19
 330:	27 95       	ror	r18
 332:	35 95       	asr	r19
 334:	27 95       	ror	r18
 336:	35 95       	asr	r19
 338:	27 95       	ror	r18
 33a:	c9 01       	movw	r24, r18
 33c:	88 0f       	add	r24, r24
 33e:	99 1f       	adc	r25, r25
 340:	22 0f       	add	r18, r18
 342:	33 1f       	adc	r19, r19
 344:	22 0f       	add	r18, r18
 346:	33 1f       	adc	r19, r19
 348:	22 0f       	add	r18, r18
 34a:	33 1f       	adc	r19, r19
 34c:	82 0f       	add	r24, r18
 34e:	93 1f       	adc	r25, r19
 350:	6f 70       	andi	r22, 0x0F	; 15
 352:	86 0f       	add	r24, r22
 354:	91 1d       	adc	r25, r1
		}
		pInputData->Hrs &= 0x1F;
	}
	
	/* Framing Time String */
	sprintf((char*)pOutputData->Time, "%02d:%02d:%02d%s", BCDToDecimal(pInputData->Hrs), BCDToDecimal(pInputData->Mins), BCDToDecimal(pInputData->Secs), TimeFormat);
 356:	9f 93       	push	r25
 358:	8f 93       	push	r24
 35a:	25 2f       	mov	r18, r21
 35c:	30 e0       	ldi	r19, 0x00	; 0
	return (((Decimal/10) << 4) | (Decimal % 10));
}

static int BCDToDecimal(int BCD)
{
	return (((BCD>>4)*10) + (BCD & 0xF));
 35e:	35 95       	asr	r19
 360:	27 95       	ror	r18
 362:	35 95       	asr	r19
 364:	27 95       	ror	r18
 366:	35 95       	asr	r19
 368:	27 95       	ror	r18
 36a:	35 95       	asr	r19
 36c:	27 95       	ror	r18
 36e:	c9 01       	movw	r24, r18
 370:	88 0f       	add	r24, r24
 372:	99 1f       	adc	r25, r25
 374:	22 0f       	add	r18, r18
 376:	33 1f       	adc	r19, r19
 378:	22 0f       	add	r18, r18
 37a:	33 1f       	adc	r19, r19
 37c:	22 0f       	add	r18, r18
 37e:	33 1f       	adc	r19, r19
 380:	82 0f       	add	r24, r18
 382:	93 1f       	adc	r25, r19
 384:	5f 70       	andi	r21, 0x0F	; 15
 386:	85 0f       	add	r24, r21
 388:	91 1d       	adc	r25, r1
		}
		pInputData->Hrs &= 0x1F;
	}
	
	/* Framing Time String */
	sprintf((char*)pOutputData->Time, "%02d:%02d:%02d%s", BCDToDecimal(pInputData->Hrs), BCDToDecimal(pInputData->Mins), BCDToDecimal(pInputData->Secs), TimeFormat);
 38a:	9f 93       	push	r25
 38c:	8f 93       	push	r24
 38e:	24 2f       	mov	r18, r20
 390:	30 e0       	ldi	r19, 0x00	; 0
	return (((Decimal/10) << 4) | (Decimal % 10));
}

static int BCDToDecimal(int BCD)
{
	return (((BCD>>4)*10) + (BCD & 0xF));
 392:	35 95       	asr	r19
 394:	27 95       	ror	r18
 396:	35 95       	asr	r19
 398:	27 95       	ror	r18
 39a:	35 95       	asr	r19
 39c:	27 95       	ror	r18
 39e:	35 95       	asr	r19
 3a0:	27 95       	ror	r18
 3a2:	c9 01       	movw	r24, r18
 3a4:	88 0f       	add	r24, r24
 3a6:	99 1f       	adc	r25, r25
 3a8:	22 0f       	add	r18, r18
 3aa:	33 1f       	adc	r19, r19
 3ac:	22 0f       	add	r18, r18
 3ae:	33 1f       	adc	r19, r19
 3b0:	22 0f       	add	r18, r18
 3b2:	33 1f       	adc	r19, r19
 3b4:	82 0f       	add	r24, r18
 3b6:	93 1f       	adc	r25, r19
 3b8:	4f 70       	andi	r20, 0x0F	; 15
 3ba:	84 0f       	add	r24, r20
 3bc:	91 1d       	adc	r25, r1
		}
		pInputData->Hrs &= 0x1F;
	}
	
	/* Framing Time String */
	sprintf((char*)pOutputData->Time, "%02d:%02d:%02d%s", BCDToDecimal(pInputData->Hrs), BCDToDecimal(pInputData->Mins), BCDToDecimal(pInputData->Secs), TimeFormat);
 3be:	9f 93       	push	r25
 3c0:	8f 93       	push	r24
 3c2:	85 e7       	ldi	r24, 0x75	; 117
 3c4:	90 e0       	ldi	r25, 0x00	; 0
 3c6:	9f 93       	push	r25
 3c8:	8f 93       	push	r24
 3ca:	ff e0       	ldi	r31, 0x0F	; 15
 3cc:	ef 0e       	add	r14, r31
 3ce:	f1 1c       	adc	r15, r1
 3d0:	ff 92       	push	r15
 3d2:	ef 92       	push	r14
 3d4:	cc d1       	rcall	.+920    	; 0x76e <sprintf>
 3d6:	0f b6       	in	r0, 0x3f	; 63
 3d8:	f8 94       	cli
 3da:	de bf       	out	0x3e, r29	; 62
 3dc:	0f be       	out	0x3f, r0	; 63
 3de:	cd bf       	out	0x3d, r28	; 61
}
 3e0:	2a 96       	adiw	r28, 0x0a	; 10
 3e2:	0f b6       	in	r0, 0x3f	; 63
 3e4:	f8 94       	cli
 3e6:	de bf       	out	0x3e, r29	; 62
 3e8:	0f be       	out	0x3f, r0	; 63
 3ea:	cd bf       	out	0x3d, r28	; 61
 3ec:	df 91       	pop	r29
 3ee:	cf 91       	pop	r28
 3f0:	1f 91       	pop	r17
 3f2:	0f 91       	pop	r16
 3f4:	ff 90       	pop	r15
 3f6:	ef 90       	pop	r14
 3f8:	08 95       	ret

000003fa <DS1307_Read>:
	/* Stop I2C Transfer */
	I2C_stop();
}

DataDateTime DS1307_Read(void)
{
 3fa:	0f 93       	push	r16
 3fc:	1f 93       	push	r17
 3fe:	cf 93       	push	r28
 400:	df 93       	push	r29
 402:	cd b7       	in	r28, 0x3d	; 61
 404:	de b7       	in	r29, 0x3e	; 62
 406:	a7 97       	sbiw	r28, 0x27	; 39
 408:	0f b6       	in	r0, 0x3f	; 63
 40a:	f8 94       	cli
 40c:	de bf       	out	0x3e, r29	; 62
 40e:	0f be       	out	0x3f, r0	; 63
 410:	cd bf       	out	0x3d, r28	; 61
 412:	8c 01       	movw	r16, r24
	BcdDateTime BcdregData;
	DataDateTime GetDateTime;
	
	/* Start I2C Transfer */
	I2C_start();
 414:	42 d0       	rcall	.+132    	; 0x49a <I2C_start>
	
	/* Select Slave device to Write of Address D0H */
	I2C_write(WriteAddress, SLAVE_ADDRESS);
 416:	60 ed       	ldi	r22, 0xD0	; 208
 418:	80 e0       	ldi	r24, 0x00	; 0
 41a:	49 d0       	rcall	.+146    	; 0x4ae <I2C_write>
	
	/* Set Reg Address to 00H */
	I2C_write(WriteData, SLAVE_REG_ADDRESS);
 41c:	60 e0       	ldi	r22, 0x00	; 0
 41e:	82 e0       	ldi	r24, 0x02	; 2
 420:	46 d0       	rcall	.+140    	; 0x4ae <I2C_write>
	
	/* Start I2C Transfer */
	I2C_stop();
 422:	7a d0       	rcall	.+244    	; 0x518 <I2C_stop>
	
	/* Start I2C Transfer */
	I2C_start();
 424:	3a d0       	rcall	.+116    	; 0x49a <I2C_start>
	
	/* Select Slave device to Read of Address D1H */
	I2C_write(ReadAddress, SLAVE_ADDRESS);
 426:	60 ed       	ldi	r22, 0xD0	; 208
 428:	81 e0       	ldi	r24, 0x01	; 1
 42a:	41 d0       	rcall	.+130    	; 0x4ae <I2C_write>
	
	/* Reading Seconds Value */
	BcdregData.Secs = I2C_Read(ACK);
 42c:	80 e0       	ldi	r24, 0x00	; 0
 42e:	5b d0       	rcall	.+182    	; 0x4e6 <I2C_Read>
 430:	89 83       	std	Y+1, r24	; 0x01
	
	/* Reading Minutes Value */
	BcdregData.Mins = I2C_Read(ACK);
 432:	80 e0       	ldi	r24, 0x00	; 0
 434:	58 d0       	rcall	.+176    	; 0x4e6 <I2C_Read>
 436:	8a 83       	std	Y+2, r24	; 0x02
	
	/* Reading Hours Value */
	BcdregData.Hrs = I2C_Read(ACK);
 438:	80 e0       	ldi	r24, 0x00	; 0
 43a:	55 d0       	rcall	.+170    	; 0x4e6 <I2C_Read>
 43c:	8b 83       	std	Y+3, r24	; 0x03
	
	/* Reading Day Value */
	BcdregData.Day = I2C_Read(ACK);
 43e:	80 e0       	ldi	r24, 0x00	; 0
 440:	52 d0       	rcall	.+164    	; 0x4e6 <I2C_Read>
 442:	8c 83       	std	Y+4, r24	; 0x04
	
	/* Reading Date Value */
	BcdregData.Date = I2C_Read(ACK);
 444:	80 e0       	ldi	r24, 0x00	; 0
 446:	4f d0       	rcall	.+158    	; 0x4e6 <I2C_Read>
 448:	8d 83       	std	Y+5, r24	; 0x05
	
	/* Reading Months Value */
	BcdregData.Months = I2C_Read(ACK);
 44a:	80 e0       	ldi	r24, 0x00	; 0
 44c:	4c d0       	rcall	.+152    	; 0x4e6 <I2C_Read>
 44e:	8e 83       	std	Y+6, r24	; 0x06
	
	/* Reading Year Value */
	BcdregData.Year = I2C_Read(ACK);
 450:	80 e0       	ldi	r24, 0x00	; 0
 452:	49 d0       	rcall	.+146    	; 0x4e6 <I2C_Read>
 454:	8f 83       	std	Y+7, r24	; 0x07
	
	/* Reading 07H Reg Value */
	BcdregData.Unknown = I2C_Read(NACK);
 456:	81 e0       	ldi	r24, 0x01	; 1
 458:	46 d0       	rcall	.+140    	; 0x4e6 <I2C_Read>
 45a:	88 87       	std	Y+8, r24	; 0x08
	
	/* Start I2C Transfer */
	I2C_stop();
 45c:	5d d0       	rcall	.+186    	; 0x518 <I2C_stop>
	
	/*Converting BCDFormat data into Format of DataDateTime data */
	Bcd2Data(&BcdregData, &GetDateTime);
 45e:	be 01       	movw	r22, r28
 460:	67 5f       	subi	r22, 0xF7	; 247
 462:	7f 4f       	sbci	r23, 0xFF	; 255
 464:	ce 01       	movw	r24, r28
 466:	01 96       	adiw	r24, 0x01	; 1
 468:	c0 de       	rcall	.-640    	; 0x1ea <Bcd2Data>
	
	return GetDateTime;
 46a:	8f e1       	ldi	r24, 0x1F	; 31
 46c:	fe 01       	movw	r30, r28
 46e:	39 96       	adiw	r30, 0x09	; 9
 470:	d8 01       	movw	r26, r16
 472:	01 90       	ld	r0, Z+
 474:	0d 92       	st	X+, r0
 476:	8a 95       	dec	r24
 478:	e1 f7       	brne	.-8      	; 0x472 <__stack+0x13>
}
 47a:	c8 01       	movw	r24, r16
 47c:	a7 96       	adiw	r28, 0x27	; 39
 47e:	0f b6       	in	r0, 0x3f	; 63
 480:	f8 94       	cli
 482:	de bf       	out	0x3e, r29	; 62
 484:	0f be       	out	0x3f, r0	; 63
 486:	cd bf       	out	0x3d, r28	; 61
 488:	df 91       	pop	r29
 48a:	cf 91       	pop	r28
 48c:	1f 91       	pop	r17
 48e:	0f 91       	pop	r16
 490:	08 95       	ret

00000492 <I2C_init>:
#include "I2C_TWI.h"

void I2C_init(void)
{
	/* Clearing status register */
	TWSR = 0x00;
 492:	11 b8       	out	0x01, r1	; 1
	
	/* setting up bit rate */
	TWBR = 0x0C;
 494:	8c e0       	ldi	r24, 0x0C	; 12
 496:	80 b9       	out	0x00, r24	; 0
 498:	08 95       	ret

0000049a <I2C_start>:
}

void I2C_start(void)
{
	/* setting start condition */
	TWCR = (1<<TWINT)|(1<<TWEN)|(1<<TWSTA);
 49a:	84 ea       	ldi	r24, 0xA4	; 164
 49c:	86 bf       	out	0x36, r24	; 54
	
	/* waiting to finish the start condition */
	while((TWCR & (1<<TWINT)) == 0);
 49e:	06 b6       	in	r0, 0x36	; 54
 4a0:	07 fe       	sbrs	r0, 7
 4a2:	fd cf       	rjmp	.-6      	; 0x49e <I2C_start+0x4>
	
	/* waiting until req status is obtained */
	while((TWSR & (0xF8)) != 0x08);
 4a4:	81 b1       	in	r24, 0x01	; 1
 4a6:	88 7f       	andi	r24, 0xF8	; 248
 4a8:	88 30       	cpi	r24, 0x08	; 8
 4aa:	e1 f7       	brne	.-8      	; 0x4a4 <I2C_start+0xa>
}
 4ac:	08 95       	ret

000004ae <I2C_write>:

void I2C_write(WriteMode eMode, uint8_t data)
{
	/* storing slave address or data to the data buffer */
	TWDR = data;
 4ae:	63 b9       	out	0x03, r22	; 3
	
	if(eMode == ReadAddress)
 4b0:	81 30       	cpi	r24, 0x01	; 1
 4b2:	09 f4       	brne	.+2      	; 0x4b6 <I2C_write+0x8>
	{
		TWDR |= 0x01;
 4b4:	18 9a       	sbi	0x03, 0	; 3
	}
	
	/* Enabling transfer */
	TWCR = (1<<TWINT)|(1<<TWEN);
 4b6:	94 e8       	ldi	r25, 0x84	; 132
 4b8:	96 bf       	out	0x36, r25	; 54
	
	/* waiting to finish the writing condition */
	while((TWCR & (1<<TWINT)) == 0);
 4ba:	06 b6       	in	r0, 0x36	; 54
 4bc:	07 fe       	sbrs	r0, 7
 4be:	fd cf       	rjmp	.-6      	; 0x4ba <I2C_write+0xc>
	
	if(eMode == WriteAddress)
 4c0:	81 11       	cpse	r24, r1
 4c2:	05 c0       	rjmp	.+10     	; 0x4ce <I2C_write+0x20>
	{
		/* waiting until req status is obtained (Write Address ACK status) */
		while((TWSR & (0xF8)) != 0x18);
 4c4:	81 b1       	in	r24, 0x01	; 1
 4c6:	88 7f       	andi	r24, 0xF8	; 248
 4c8:	88 31       	cpi	r24, 0x18	; 24
 4ca:	e1 f7       	brne	.-8      	; 0x4c4 <I2C_write+0x16>
 4cc:	08 95       	ret
	}
	else if(eMode == ReadAddress)
 4ce:	81 30       	cpi	r24, 0x01	; 1
 4d0:	29 f4       	brne	.+10     	; 0x4dc <I2C_write+0x2e>
	{
		/* waiting until req status is obtained (Read Address ACK status) */
		while((TWSR & (0xF8)) != 0x40);
 4d2:	81 b1       	in	r24, 0x01	; 1
 4d4:	88 7f       	andi	r24, 0xF8	; 248
 4d6:	80 34       	cpi	r24, 0x40	; 64
 4d8:	e1 f7       	brne	.-8      	; 0x4d2 <I2C_write+0x24>
 4da:	08 95       	ret
	}
	else
	{
		/* waiting until req status is obtained (Write Data ACK status) */
		while((TWSR & (0xF8)) != 0x28);
 4dc:	81 b1       	in	r24, 0x01	; 1
 4de:	88 7f       	andi	r24, 0xF8	; 248
 4e0:	88 32       	cpi	r24, 0x28	; 40
 4e2:	e1 f7       	brne	.-8      	; 0x4dc <I2C_write+0x2e>
 4e4:	08 95       	ret

000004e6 <I2C_Read>:

unsigned char I2C_Read(AckReturn eAckType)
{
	uint8_t recvdata;
	
	if(eAckType == ACK)
 4e6:	81 11       	cpse	r24, r1
 4e8:	0a c0       	rjmp	.+20     	; 0x4fe <I2C_Read+0x18>
	{
		/* Enabling transfer */
		TWCR = (1<<TWINT)|(1<<TWEN)|(1<<TWEA);
 4ea:	84 ec       	ldi	r24, 0xC4	; 196
 4ec:	86 bf       	out	0x36, r24	; 54
		
		/* waiting to finish the reading condition */
		while((TWCR & (1<<TWINT)) == 0);
 4ee:	06 b6       	in	r0, 0x36	; 54
 4f0:	07 fe       	sbrs	r0, 7
 4f2:	fd cf       	rjmp	.-6      	; 0x4ee <I2C_Read+0x8>
		
		/* waiting until req status is obtained (Read Data ACK status) */
		while((TWSR & (0xF8)) != 0x50);
 4f4:	81 b1       	in	r24, 0x01	; 1
 4f6:	88 7f       	andi	r24, 0xF8	; 248
 4f8:	80 35       	cpi	r24, 0x50	; 80
 4fa:	e1 f7       	brne	.-8      	; 0x4f4 <I2C_Read+0xe>
 4fc:	0b c0       	rjmp	.+22     	; 0x514 <I2C_Read+0x2e>
	}
	else if(eAckType == NACK)
 4fe:	81 30       	cpi	r24, 0x01	; 1
 500:	49 f4       	brne	.+18     	; 0x514 <I2C_Read+0x2e>
	{
		/* Enabling transfer */
		TWCR = (1<<TWINT)|(1<<TWEN);
 502:	84 e8       	ldi	r24, 0x84	; 132
 504:	86 bf       	out	0x36, r24	; 54
		
		/* waiting to finish the reading condition */
		while((TWCR & (1<<TWINT)) == 0);
 506:	06 b6       	in	r0, 0x36	; 54
 508:	07 fe       	sbrs	r0, 7
 50a:	fd cf       	rjmp	.-6      	; 0x506 <I2C_Read+0x20>
		
		/* waiting until req status is obtained (Last Read Data Byte NACK status) */
		while((TWSR & (0xF8)) != 0x58);
 50c:	81 b1       	in	r24, 0x01	; 1
 50e:	88 7f       	andi	r24, 0xF8	; 248
 510:	88 35       	cpi	r24, 0x58	; 88
 512:	e1 f7       	brne	.-8      	; 0x50c <I2C_Read+0x26>
	}
	
	/* getting data from the data buffer */
	recvdata = TWDR;
 514:	83 b1       	in	r24, 0x03	; 3
	
	return recvdata;
}
 516:	08 95       	ret

00000518 <I2C_stop>:

void I2C_stop(void)
{
	/* setting stop condition */
	TWCR = (1<<TWINT)|(1<<TWSTO)|(1<<TWEN);
 518:	84 e9       	ldi	r24, 0x94	; 148
 51a:	86 bf       	out	0x36, r24	; 54
 51c:	08 95       	ret

0000051e <LCD_cmd>:
}

void LCD_cmd(uint8_t command)
{
	/* set LCD into the command reg mode & disabling the LCD enable pin*/	
	PORTB = (0<<PORTB0)|(1<<PORTB2);
 51e:	94 e0       	ldi	r25, 0x04	; 4
 520:	98 bb       	out	0x18, r25	; 24
	#else
		//round up by default
		__ticks_dc = (uint32_t)(ceil(fabs(__tmp)));
	#endif

	__builtin_avr_delay_cycles(__ticks_dc);
 522:	ef e0       	ldi	r30, 0x0F	; 15
 524:	f7 e2       	ldi	r31, 0x27	; 39
 526:	31 97       	sbiw	r30, 0x01	; 1
 528:	f1 f7       	brne	.-4      	; 0x526 <LCD_cmd+0x8>
 52a:	00 c0       	rjmp	.+0      	; 0x52c <LCD_cmd+0xe>
 52c:	00 00       	nop
	_delay_ms(5);
	
	/* Loading command into the PORTD */
	PORTD = command;
 52e:	82 bb       	out	0x12, r24	; 18
	
	/* Keeping LCD into the command reg mode & latching command to LCD using enable */
	PORTB = (0<<PORTB0)|(0<<PORTB2);
 530:	18 ba       	out	0x18, r1	; 24
 532:	8f e0       	ldi	r24, 0x0F	; 15
 534:	97 e2       	ldi	r25, 0x27	; 39
 536:	01 97       	sbiw	r24, 0x01	; 1
 538:	f1 f7       	brne	.-4      	; 0x536 <LCD_cmd+0x18>
 53a:	00 c0       	rjmp	.+0      	; 0x53c <LCD_cmd+0x1e>
 53c:	00 00       	nop
 53e:	08 95       	ret

00000540 <LCD_init>:
#include "LCD.h"

void LCD_init(void)
{
	/* LCD control bus */
	DDRB |= 0xFF;
 540:	87 b3       	in	r24, 0x17	; 23
 542:	8f ef       	ldi	r24, 0xFF	; 255
 544:	87 bb       	out	0x17, r24	; 23
	
	/* LCD data bus */
	DDRD |= 0xFF;
 546:	91 b3       	in	r25, 0x11	; 17
 548:	81 bb       	out	0x11, r24	; 17
	
	/* Initialize the bus to zero */
	PORTB = 0x00;
 54a:	18 ba       	out	0x18, r1	; 24
	PORTD = 0x00;
 54c:	12 ba       	out	0x12, r1	; 18
	
	/* 8bit LCD control */
	LCD_cmd(0x38);
 54e:	88 e3       	ldi	r24, 0x38	; 56
 550:	e6 df       	rcall	.-52     	; 0x51e <LCD_cmd>
	
	/* Display ON and cursor ON (blinking off) */
	LCD_cmd(0x0E);
 552:	8e e0       	ldi	r24, 0x0E	; 14
 554:	e4 df       	rcall	.-56     	; 0x51e <LCD_cmd>
	
	/* clear last print */
	LCD_cmd(0x01);
 556:	81 e0       	ldi	r24, 0x01	; 1
 558:	e2 df       	rcall	.-60     	; 0x51e <LCD_cmd>
 55a:	8f e0       	ldi	r24, 0x0F	; 15
 55c:	97 e2       	ldi	r25, 0x27	; 39
 55e:	01 97       	sbiw	r24, 0x01	; 1
 560:	f1 f7       	brne	.-4      	; 0x55e <LCD_init+0x1e>
 562:	00 c0       	rjmp	.+0      	; 0x564 <LCD_init+0x24>
 564:	00 00       	nop
 566:	08 95       	ret

00000568 <LCD_data>:
}

void LCD_data(uint8_t data)
{
	/* set LCD into the data reg mode & disabling the LCD enable pin*/
	PORTB = (1<<PORTB0)|(1<<PORTB2);
 568:	95 e0       	ldi	r25, 0x05	; 5
 56a:	98 bb       	out	0x18, r25	; 24
 56c:	ef e0       	ldi	r30, 0x0F	; 15
 56e:	f7 e2       	ldi	r31, 0x27	; 39
 570:	31 97       	sbiw	r30, 0x01	; 1
 572:	f1 f7       	brne	.-4      	; 0x570 <LCD_data+0x8>
 574:	00 c0       	rjmp	.+0      	; 0x576 <LCD_data+0xe>
 576:	00 00       	nop
	_delay_ms(5);
	
	/* Loading data into the PORTD */
	PORTD = data;
 578:	82 bb       	out	0x12, r24	; 18

	/* Keeping LCD into the data reg mode & latching data to LCD using enable */
	PORTB = (1<<PORTB0)|(0<<PORTB2);
 57a:	81 e0       	ldi	r24, 0x01	; 1
 57c:	88 bb       	out	0x18, r24	; 24
 57e:	8f e0       	ldi	r24, 0x0F	; 15
 580:	97 e2       	ldi	r25, 0x27	; 39
 582:	01 97       	sbiw	r24, 0x01	; 1
 584:	f1 f7       	brne	.-4      	; 0x582 <LCD_data+0x1a>
 586:	00 c0       	rjmp	.+0      	; 0x588 <LCD_data+0x20>
 588:	00 00       	nop
 58a:	08 95       	ret

0000058c <LCD_print>:
	_delay_ms(5);
}

void LCD_print(int line_no, char *info)
{
 58c:	cf 93       	push	r28
 58e:	df 93       	push	r29
 590:	eb 01       	movw	r28, r22
	int i;
	
	/* clear last print */
//	LCD_cmd(0x01);
	
	if(line_no == 1)
 592:	01 97       	sbiw	r24, 0x01	; 1
 594:	19 f4       	brne	.+6      	; 0x59c <LCD_print+0x10>
	{
		/* cursor to first row of LCD */
		LCD_cmd(0x80);
 596:	80 e8       	ldi	r24, 0x80	; 128
 598:	c2 df       	rcall	.-124    	; 0x51e <LCD_cmd>
 59a:	02 c0       	rjmp	.+4      	; 0x5a0 <LCD_print+0x14>
	}
	else
	{
		/* cursor to second row of LCD */
		LCD_cmd(0xC0);	
 59c:	80 ec       	ldi	r24, 0xC0	; 192
 59e:	bf df       	rcall	.-130    	; 0x51e <LCD_cmd>
	}

	for(i=0;info[i] != 0;i++)
 5a0:	88 81       	ld	r24, Y
 5a2:	88 23       	and	r24, r24
 5a4:	29 f0       	breq	.+10     	; 0x5b0 <LCD_print+0x24>
 5a6:	21 96       	adiw	r28, 0x01	; 1
	{
		LCD_data(info[i]);
 5a8:	df df       	rcall	.-66     	; 0x568 <LCD_data>
	{
		/* cursor to second row of LCD */
		LCD_cmd(0xC0);	
	}

	for(i=0;info[i] != 0;i++)
 5aa:	89 91       	ld	r24, Y+
 5ac:	81 11       	cpse	r24, r1
 5ae:	fc cf       	rjmp	.-8      	; 0x5a8 <LCD_print+0x1c>
	{
		LCD_data(info[i]);
	}	
}
 5b0:	df 91       	pop	r29
 5b2:	cf 91       	pop	r28
 5b4:	08 95       	ret

000005b6 <main>:
#include <string.h>
#define F_CPU 8000000
#include <util/delay.h>

int main(void)
{
 5b6:	cf 93       	push	r28
 5b8:	df 93       	push	r29
 5ba:	cd b7       	in	r28, 0x3d	; 61
 5bc:	de b7       	in	r29, 0x3e	; 62
 5be:	cd 55       	subi	r28, 0x5D	; 93
 5c0:	d1 09       	sbc	r29, r1
 5c2:	0f b6       	in	r0, 0x3f	; 63
 5c4:	f8 94       	cli
 5c6:	de bf       	out	0x3e, r29	; 62
 5c8:	0f be       	out	0x3f, r0	; 63
 5ca:	cd bf       	out	0x3d, r28	; 61
	DataDateTime SetDateTime;
	DataDateTime GetDateTime;
	
	/* Initializing LCD */
	LCD_init();
 5cc:	b9 df       	rcall	.-142    	; 0x540 <LCD_init>
	
	/* Initializing I2C Module */
	I2C_init();
 5ce:	61 df       	rcall	.-318    	; 0x492 <I2C_init>
	
	/* Set the current date, day and time */
	strcpy((char*)SetDateTime.Time, "11:59:55 PM");
 5d0:	8c e0       	ldi	r24, 0x0C	; 12
 5d2:	e6 e8       	ldi	r30, 0x86	; 134
 5d4:	f0 e0       	ldi	r31, 0x00	; 0
 5d6:	de 01       	movw	r26, r28
 5d8:	50 96       	adiw	r26, 0x10	; 16
 5da:	01 90       	ld	r0, Z+
 5dc:	0d 92       	st	X+, r0
 5de:	8a 95       	dec	r24
 5e0:	e1 f7       	brne	.-8      	; 0x5da <main+0x24>
//	strcpy((char*)SetDateTime.Time, "23:59:55");
	strcpy((char*)SetDateTime.Date, "22-07-18");
 5e2:	89 e0       	ldi	r24, 0x09	; 9
 5e4:	e2 e9       	ldi	r30, 0x92	; 146
 5e6:	f0 e0       	ldi	r31, 0x00	; 0
 5e8:	de 01       	movw	r26, r28
 5ea:	11 96       	adiw	r26, 0x01	; 1
 5ec:	01 90       	ld	r0, Z+
 5ee:	0d 92       	st	X+, r0
 5f0:	8a 95       	dec	r24
 5f2:	e1 f7       	brne	.-8      	; 0x5ec <main+0x36>
	SetDateTime.eDay = Sunday;
 5f4:	81 e0       	ldi	r24, 0x01	; 1
 5f6:	8f 8f       	std	Y+31, r24	; 0x1f
	
	/* Writing current Date, Day and Time into RTC */
	DS1307_Write(SetDateTime);
 5f8:	8d b7       	in	r24, 0x3d	; 61
 5fa:	9e b7       	in	r25, 0x3e	; 62
 5fc:	4f 97       	sbiw	r24, 0x1f	; 31
 5fe:	0f b6       	in	r0, 0x3f	; 63
 600:	f8 94       	cli
 602:	9e bf       	out	0x3e, r25	; 62
 604:	0f be       	out	0x3f, r0	; 63
 606:	8d bf       	out	0x3d, r24	; 61
 608:	ad b7       	in	r26, 0x3d	; 61
 60a:	be b7       	in	r27, 0x3e	; 62
 60c:	11 96       	adiw	r26, 0x01	; 1
 60e:	8f e1       	ldi	r24, 0x1F	; 31
 610:	fe 01       	movw	r30, r28
 612:	31 96       	adiw	r30, 0x01	; 1
 614:	01 90       	ld	r0, Z+
 616:	0d 92       	st	X+, r0
 618:	8a 95       	dec	r24
 61a:	e1 f7       	brne	.-8      	; 0x614 <main+0x5e>
 61c:	b0 dd       	rcall	.-1184   	; 0x17e <DS1307_Write>
 61e:	0f b6       	in	r0, 0x3f	; 63
 620:	f8 94       	cli
 622:	de bf       	out	0x3e, r29	; 62
 624:	0f be       	out	0x3f, r0	; 63
 626:	cd bf       	out	0x3d, r28	; 61
	
	while(1)
	{
		/* Reading Date and Time from RTC */
		GetDateTime = DS1307_Read();
 628:	1f e1       	ldi	r17, 0x1F	; 31
 62a:	ce 01       	movw	r24, r28
 62c:	cf 96       	adiw	r24, 0x3f	; 63
 62e:	e5 de       	rcall	.-566    	; 0x3fa <DS1307_Read>
 630:	fe 01       	movw	r30, r28
 632:	ff 96       	adiw	r30, 0x3f	; 63
 634:	de 01       	movw	r26, r28
 636:	90 96       	adiw	r26, 0x20	; 32
 638:	81 2f       	mov	r24, r17
 63a:	01 90       	ld	r0, Z+
 63c:	0d 92       	st	X+, r0
 63e:	8a 95       	dec	r24
 640:	e1 f7       	brne	.-8      	; 0x63a <main+0x84>
		
		/* Printing the result into LCD */
		LCD_print(1, (char*)GetDateTime.Time);
 642:	be 01       	movw	r22, r28
 644:	61 5d       	subi	r22, 0xD1	; 209
 646:	7f 4f       	sbci	r23, 0xFF	; 255
 648:	81 e0       	ldi	r24, 0x01	; 1
 64a:	90 e0       	ldi	r25, 0x00	; 0
 64c:	9f df       	rcall	.-194    	; 0x58c <LCD_print>
		LCD_print(2, (char*)GetDateTime.Date);
 64e:	be 01       	movw	r22, r28
 650:	60 5e       	subi	r22, 0xE0	; 224
 652:	7f 4f       	sbci	r23, 0xFF	; 255
 654:	82 e0       	ldi	r24, 0x02	; 2
 656:	90 e0       	ldi	r25, 0x00	; 0
 658:	99 df       	rcall	.-206    	; 0x58c <LCD_print>
 65a:	9f ef       	ldi	r25, 0xFF	; 255
 65c:	20 e7       	ldi	r18, 0x70	; 112
 65e:	82 e0       	ldi	r24, 0x02	; 2
 660:	91 50       	subi	r25, 0x01	; 1
 662:	20 40       	sbci	r18, 0x00	; 0
 664:	80 40       	sbci	r24, 0x00	; 0
 666:	e1 f7       	brne	.-8      	; 0x660 <main+0xaa>
 668:	00 c0       	rjmp	.+0      	; 0x66a <main+0xb4>
 66a:	00 00       	nop
 66c:	de cf       	rjmp	.-68     	; 0x62a <main+0x74>

0000066e <__divmodhi4>:
 66e:	97 fb       	bst	r25, 7
 670:	07 2e       	mov	r0, r23
 672:	16 f4       	brtc	.+4      	; 0x678 <__divmodhi4+0xa>
 674:	00 94       	com	r0
 676:	06 d0       	rcall	.+12     	; 0x684 <__divmodhi4_neg1>
 678:	77 fd       	sbrc	r23, 7
 67a:	08 d0       	rcall	.+16     	; 0x68c <__divmodhi4_neg2>
 67c:	0b d0       	rcall	.+22     	; 0x694 <__udivmodhi4>
 67e:	07 fc       	sbrc	r0, 7
 680:	05 d0       	rcall	.+10     	; 0x68c <__divmodhi4_neg2>
 682:	3e f4       	brtc	.+14     	; 0x692 <__divmodhi4_exit>

00000684 <__divmodhi4_neg1>:
 684:	90 95       	com	r25
 686:	81 95       	neg	r24
 688:	9f 4f       	sbci	r25, 0xFF	; 255
 68a:	08 95       	ret

0000068c <__divmodhi4_neg2>:
 68c:	70 95       	com	r23
 68e:	61 95       	neg	r22
 690:	7f 4f       	sbci	r23, 0xFF	; 255

00000692 <__divmodhi4_exit>:
 692:	08 95       	ret

00000694 <__udivmodhi4>:
 694:	aa 1b       	sub	r26, r26
 696:	bb 1b       	sub	r27, r27
 698:	51 e1       	ldi	r21, 0x11	; 17
 69a:	07 c0       	rjmp	.+14     	; 0x6aa <__udivmodhi4_ep>

0000069c <__udivmodhi4_loop>:
 69c:	aa 1f       	adc	r26, r26
 69e:	bb 1f       	adc	r27, r27
 6a0:	a6 17       	cp	r26, r22
 6a2:	b7 07       	cpc	r27, r23
 6a4:	10 f0       	brcs	.+4      	; 0x6aa <__udivmodhi4_ep>
 6a6:	a6 1b       	sub	r26, r22
 6a8:	b7 0b       	sbc	r27, r23

000006aa <__udivmodhi4_ep>:
 6aa:	88 1f       	adc	r24, r24
 6ac:	99 1f       	adc	r25, r25
 6ae:	5a 95       	dec	r21
 6b0:	a9 f7       	brne	.-22     	; 0x69c <__udivmodhi4_loop>
 6b2:	80 95       	com	r24
 6b4:	90 95       	com	r25
 6b6:	bc 01       	movw	r22, r24
 6b8:	cd 01       	movw	r24, r26
 6ba:	08 95       	ret

000006bc <atoi>:
 6bc:	fc 01       	movw	r30, r24
 6be:	88 27       	eor	r24, r24
 6c0:	99 27       	eor	r25, r25
 6c2:	e8 94       	clt
 6c4:	21 91       	ld	r18, Z+
 6c6:	20 32       	cpi	r18, 0x20	; 32
 6c8:	e9 f3       	breq	.-6      	; 0x6c4 <atoi+0x8>
 6ca:	29 30       	cpi	r18, 0x09	; 9
 6cc:	10 f0       	brcs	.+4      	; 0x6d2 <atoi+0x16>
 6ce:	2e 30       	cpi	r18, 0x0E	; 14
 6d0:	c8 f3       	brcs	.-14     	; 0x6c4 <atoi+0x8>
 6d2:	2b 32       	cpi	r18, 0x2B	; 43
 6d4:	39 f0       	breq	.+14     	; 0x6e4 <atoi+0x28>
 6d6:	2d 32       	cpi	r18, 0x2D	; 45
 6d8:	31 f4       	brne	.+12     	; 0x6e6 <atoi+0x2a>
 6da:	68 94       	set
 6dc:	03 c0       	rjmp	.+6      	; 0x6e4 <atoi+0x28>
 6de:	3f d0       	rcall	.+126    	; 0x75e <__mulhi_const_10>
 6e0:	82 0f       	add	r24, r18
 6e2:	91 1d       	adc	r25, r1
 6e4:	21 91       	ld	r18, Z+
 6e6:	20 53       	subi	r18, 0x30	; 48
 6e8:	2a 30       	cpi	r18, 0x0A	; 10
 6ea:	c8 f3       	brcs	.-14     	; 0x6de <atoi+0x22>
 6ec:	1e f4       	brtc	.+6      	; 0x6f4 <atoi+0x38>
 6ee:	90 95       	com	r25
 6f0:	81 95       	neg	r24
 6f2:	9f 4f       	sbci	r25, 0xFF	; 255
 6f4:	08 95       	ret

000006f6 <strtok>:
 6f6:	4c e9       	ldi	r20, 0x9C	; 156
 6f8:	50 e0       	ldi	r21, 0x00	; 0
 6fa:	0a d0       	rcall	.+20     	; 0x710 <strtok_r>
 6fc:	08 95       	ret

000006fe <strcmp>:
 6fe:	fb 01       	movw	r30, r22
 700:	dc 01       	movw	r26, r24
 702:	8d 91       	ld	r24, X+
 704:	01 90       	ld	r0, Z+
 706:	80 19       	sub	r24, r0
 708:	01 10       	cpse	r0, r1
 70a:	d9 f3       	breq	.-10     	; 0x702 <strcmp+0x4>
 70c:	99 0b       	sbc	r25, r25
 70e:	08 95       	ret

00000710 <strtok_r>:
 710:	fa 01       	movw	r30, r20
 712:	a1 91       	ld	r26, Z+
 714:	b0 81       	ld	r27, Z
 716:	00 97       	sbiw	r24, 0x00	; 0
 718:	19 f4       	brne	.+6      	; 0x720 <strtok_r+0x10>
 71a:	10 97       	sbiw	r26, 0x00	; 0
 71c:	e1 f0       	breq	.+56     	; 0x756 <strtok_r+0x46>
 71e:	cd 01       	movw	r24, r26
 720:	dc 01       	movw	r26, r24
 722:	cd 01       	movw	r24, r26
 724:	0d 90       	ld	r0, X+
 726:	00 20       	and	r0, r0
 728:	11 f4       	brne	.+4      	; 0x72e <strtok_r+0x1e>
 72a:	c0 01       	movw	r24, r0
 72c:	13 c0       	rjmp	.+38     	; 0x754 <strtok_r+0x44>
 72e:	fb 01       	movw	r30, r22
 730:	21 91       	ld	r18, Z+
 732:	22 23       	and	r18, r18
 734:	19 f0       	breq	.+6      	; 0x73c <strtok_r+0x2c>
 736:	20 15       	cp	r18, r0
 738:	d9 f7       	brne	.-10     	; 0x730 <strtok_r+0x20>
 73a:	f3 cf       	rjmp	.-26     	; 0x722 <strtok_r+0x12>
 73c:	fb 01       	movw	r30, r22
 73e:	21 91       	ld	r18, Z+
 740:	20 15       	cp	r18, r0
 742:	19 f4       	brne	.+6      	; 0x74a <strtok_r+0x3a>
 744:	1e 92       	st	-X, r1
 746:	11 96       	adiw	r26, 0x01	; 1
 748:	06 c0       	rjmp	.+12     	; 0x756 <strtok_r+0x46>
 74a:	22 23       	and	r18, r18
 74c:	c1 f7       	brne	.-16     	; 0x73e <strtok_r+0x2e>
 74e:	0d 90       	ld	r0, X+
 750:	00 20       	and	r0, r0
 752:	a1 f7       	brne	.-24     	; 0x73c <strtok_r+0x2c>
 754:	d0 01       	movw	r26, r0
 756:	fa 01       	movw	r30, r20
 758:	a1 93       	st	Z+, r26
 75a:	b0 83       	st	Z, r27
 75c:	08 95       	ret

0000075e <__mulhi_const_10>:
 75e:	7a e0       	ldi	r23, 0x0A	; 10
 760:	97 9f       	mul	r25, r23
 762:	90 2d       	mov	r25, r0
 764:	87 9f       	mul	r24, r23
 766:	80 2d       	mov	r24, r0
 768:	91 0d       	add	r25, r1
 76a:	11 24       	eor	r1, r1
 76c:	08 95       	ret

0000076e <sprintf>:
 76e:	ae e0       	ldi	r26, 0x0E	; 14
 770:	b0 e0       	ldi	r27, 0x00	; 0
 772:	ec eb       	ldi	r30, 0xBC	; 188
 774:	f3 e0       	ldi	r31, 0x03	; 3
 776:	91 c2       	rjmp	.+1314   	; 0xc9a <__prologue_saves__+0x1c>
 778:	0d 89       	ldd	r16, Y+21	; 0x15
 77a:	1e 89       	ldd	r17, Y+22	; 0x16
 77c:	86 e0       	ldi	r24, 0x06	; 6
 77e:	8c 83       	std	Y+4, r24	; 0x04
 780:	1a 83       	std	Y+2, r17	; 0x02
 782:	09 83       	std	Y+1, r16	; 0x01
 784:	8f ef       	ldi	r24, 0xFF	; 255
 786:	9f e7       	ldi	r25, 0x7F	; 127
 788:	9e 83       	std	Y+6, r25	; 0x06
 78a:	8d 83       	std	Y+5, r24	; 0x05
 78c:	ae 01       	movw	r20, r28
 78e:	47 5e       	subi	r20, 0xE7	; 231
 790:	5f 4f       	sbci	r21, 0xFF	; 255
 792:	6f 89       	ldd	r22, Y+23	; 0x17
 794:	78 8d       	ldd	r23, Y+24	; 0x18
 796:	ce 01       	movw	r24, r28
 798:	01 96       	adiw	r24, 0x01	; 1
 79a:	08 d0       	rcall	.+16     	; 0x7ac <vfprintf>
 79c:	ef 81       	ldd	r30, Y+7	; 0x07
 79e:	f8 85       	ldd	r31, Y+8	; 0x08
 7a0:	e0 0f       	add	r30, r16
 7a2:	f1 1f       	adc	r31, r17
 7a4:	10 82       	st	Z, r1
 7a6:	2e 96       	adiw	r28, 0x0e	; 14
 7a8:	e4 e0       	ldi	r30, 0x04	; 4
 7aa:	93 c2       	rjmp	.+1318   	; 0xcd2 <__epilogue_restores__+0x1c>

000007ac <vfprintf>:
 7ac:	ac e0       	ldi	r26, 0x0C	; 12
 7ae:	b0 e0       	ldi	r27, 0x00	; 0
 7b0:	eb ed       	ldi	r30, 0xDB	; 219
 7b2:	f3 e0       	ldi	r31, 0x03	; 3
 7b4:	64 c2       	rjmp	.+1224   	; 0xc7e <__prologue_saves__>
 7b6:	7c 01       	movw	r14, r24
 7b8:	6b 01       	movw	r12, r22
 7ba:	8a 01       	movw	r16, r20
 7bc:	fc 01       	movw	r30, r24
 7be:	17 82       	std	Z+7, r1	; 0x07
 7c0:	16 82       	std	Z+6, r1	; 0x06
 7c2:	83 81       	ldd	r24, Z+3	; 0x03
 7c4:	81 ff       	sbrs	r24, 1
 7c6:	b0 c1       	rjmp	.+864    	; 0xb28 <vfprintf+0x37c>
 7c8:	ce 01       	movw	r24, r28
 7ca:	01 96       	adiw	r24, 0x01	; 1
 7cc:	4c 01       	movw	r8, r24
 7ce:	f7 01       	movw	r30, r14
 7d0:	93 81       	ldd	r25, Z+3	; 0x03
 7d2:	f6 01       	movw	r30, r12
 7d4:	93 fd       	sbrc	r25, 3
 7d6:	85 91       	lpm	r24, Z+
 7d8:	93 ff       	sbrs	r25, 3
 7da:	81 91       	ld	r24, Z+
 7dc:	6f 01       	movw	r12, r30
 7de:	88 23       	and	r24, r24
 7e0:	09 f4       	brne	.+2      	; 0x7e4 <vfprintf+0x38>
 7e2:	9e c1       	rjmp	.+828    	; 0xb20 <vfprintf+0x374>
 7e4:	85 32       	cpi	r24, 0x25	; 37
 7e6:	39 f4       	brne	.+14     	; 0x7f6 <vfprintf+0x4a>
 7e8:	93 fd       	sbrc	r25, 3
 7ea:	85 91       	lpm	r24, Z+
 7ec:	93 ff       	sbrs	r25, 3
 7ee:	81 91       	ld	r24, Z+
 7f0:	6f 01       	movw	r12, r30
 7f2:	85 32       	cpi	r24, 0x25	; 37
 7f4:	21 f4       	brne	.+8      	; 0x7fe <vfprintf+0x52>
 7f6:	b7 01       	movw	r22, r14
 7f8:	90 e0       	ldi	r25, 0x00	; 0
 7fa:	b1 d1       	rcall	.+866    	; 0xb5e <fputc>
 7fc:	e8 cf       	rjmp	.-48     	; 0x7ce <vfprintf+0x22>
 7fe:	51 2c       	mov	r5, r1
 800:	31 2c       	mov	r3, r1
 802:	20 e0       	ldi	r18, 0x00	; 0
 804:	20 32       	cpi	r18, 0x20	; 32
 806:	a0 f4       	brcc	.+40     	; 0x830 <vfprintf+0x84>
 808:	8b 32       	cpi	r24, 0x2B	; 43
 80a:	69 f0       	breq	.+26     	; 0x826 <vfprintf+0x7a>
 80c:	30 f4       	brcc	.+12     	; 0x81a <vfprintf+0x6e>
 80e:	80 32       	cpi	r24, 0x20	; 32
 810:	59 f0       	breq	.+22     	; 0x828 <vfprintf+0x7c>
 812:	83 32       	cpi	r24, 0x23	; 35
 814:	69 f4       	brne	.+26     	; 0x830 <vfprintf+0x84>
 816:	20 61       	ori	r18, 0x10	; 16
 818:	2c c0       	rjmp	.+88     	; 0x872 <vfprintf+0xc6>
 81a:	8d 32       	cpi	r24, 0x2D	; 45
 81c:	39 f0       	breq	.+14     	; 0x82c <vfprintf+0x80>
 81e:	80 33       	cpi	r24, 0x30	; 48
 820:	39 f4       	brne	.+14     	; 0x830 <vfprintf+0x84>
 822:	21 60       	ori	r18, 0x01	; 1
 824:	26 c0       	rjmp	.+76     	; 0x872 <vfprintf+0xc6>
 826:	22 60       	ori	r18, 0x02	; 2
 828:	24 60       	ori	r18, 0x04	; 4
 82a:	23 c0       	rjmp	.+70     	; 0x872 <vfprintf+0xc6>
 82c:	28 60       	ori	r18, 0x08	; 8
 82e:	21 c0       	rjmp	.+66     	; 0x872 <vfprintf+0xc6>
 830:	27 fd       	sbrc	r18, 7
 832:	27 c0       	rjmp	.+78     	; 0x882 <vfprintf+0xd6>
 834:	30 ed       	ldi	r19, 0xD0	; 208
 836:	38 0f       	add	r19, r24
 838:	3a 30       	cpi	r19, 0x0A	; 10
 83a:	78 f4       	brcc	.+30     	; 0x85a <vfprintf+0xae>
 83c:	26 ff       	sbrs	r18, 6
 83e:	06 c0       	rjmp	.+12     	; 0x84c <vfprintf+0xa0>
 840:	fa e0       	ldi	r31, 0x0A	; 10
 842:	5f 9e       	mul	r5, r31
 844:	30 0d       	add	r19, r0
 846:	11 24       	eor	r1, r1
 848:	53 2e       	mov	r5, r19
 84a:	13 c0       	rjmp	.+38     	; 0x872 <vfprintf+0xc6>
 84c:	8a e0       	ldi	r24, 0x0A	; 10
 84e:	38 9e       	mul	r3, r24
 850:	30 0d       	add	r19, r0
 852:	11 24       	eor	r1, r1
 854:	33 2e       	mov	r3, r19
 856:	20 62       	ori	r18, 0x20	; 32
 858:	0c c0       	rjmp	.+24     	; 0x872 <vfprintf+0xc6>
 85a:	8e 32       	cpi	r24, 0x2E	; 46
 85c:	21 f4       	brne	.+8      	; 0x866 <vfprintf+0xba>
 85e:	26 fd       	sbrc	r18, 6
 860:	5f c1       	rjmp	.+702    	; 0xb20 <vfprintf+0x374>
 862:	20 64       	ori	r18, 0x40	; 64
 864:	06 c0       	rjmp	.+12     	; 0x872 <vfprintf+0xc6>
 866:	8c 36       	cpi	r24, 0x6C	; 108
 868:	11 f4       	brne	.+4      	; 0x86e <vfprintf+0xc2>
 86a:	20 68       	ori	r18, 0x80	; 128
 86c:	02 c0       	rjmp	.+4      	; 0x872 <vfprintf+0xc6>
 86e:	88 36       	cpi	r24, 0x68	; 104
 870:	41 f4       	brne	.+16     	; 0x882 <vfprintf+0xd6>
 872:	f6 01       	movw	r30, r12
 874:	93 fd       	sbrc	r25, 3
 876:	85 91       	lpm	r24, Z+
 878:	93 ff       	sbrs	r25, 3
 87a:	81 91       	ld	r24, Z+
 87c:	6f 01       	movw	r12, r30
 87e:	81 11       	cpse	r24, r1
 880:	c1 cf       	rjmp	.-126    	; 0x804 <vfprintf+0x58>
 882:	98 2f       	mov	r25, r24
 884:	9f 7d       	andi	r25, 0xDF	; 223
 886:	95 54       	subi	r25, 0x45	; 69
 888:	93 30       	cpi	r25, 0x03	; 3
 88a:	28 f4       	brcc	.+10     	; 0x896 <vfprintf+0xea>
 88c:	0c 5f       	subi	r16, 0xFC	; 252
 88e:	1f 4f       	sbci	r17, 0xFF	; 255
 890:	ff e3       	ldi	r31, 0x3F	; 63
 892:	f9 83       	std	Y+1, r31	; 0x01
 894:	0d c0       	rjmp	.+26     	; 0x8b0 <vfprintf+0x104>
 896:	83 36       	cpi	r24, 0x63	; 99
 898:	31 f0       	breq	.+12     	; 0x8a6 <vfprintf+0xfa>
 89a:	83 37       	cpi	r24, 0x73	; 115
 89c:	71 f0       	breq	.+28     	; 0x8ba <vfprintf+0x10e>
 89e:	83 35       	cpi	r24, 0x53	; 83
 8a0:	09 f0       	breq	.+2      	; 0x8a4 <vfprintf+0xf8>
 8a2:	57 c0       	rjmp	.+174    	; 0x952 <vfprintf+0x1a6>
 8a4:	21 c0       	rjmp	.+66     	; 0x8e8 <vfprintf+0x13c>
 8a6:	f8 01       	movw	r30, r16
 8a8:	80 81       	ld	r24, Z
 8aa:	89 83       	std	Y+1, r24	; 0x01
 8ac:	0e 5f       	subi	r16, 0xFE	; 254
 8ae:	1f 4f       	sbci	r17, 0xFF	; 255
 8b0:	44 24       	eor	r4, r4
 8b2:	43 94       	inc	r4
 8b4:	51 2c       	mov	r5, r1
 8b6:	54 01       	movw	r10, r8
 8b8:	14 c0       	rjmp	.+40     	; 0x8e2 <vfprintf+0x136>
 8ba:	38 01       	movw	r6, r16
 8bc:	f2 e0       	ldi	r31, 0x02	; 2
 8be:	6f 0e       	add	r6, r31
 8c0:	71 1c       	adc	r7, r1
 8c2:	f8 01       	movw	r30, r16
 8c4:	a0 80       	ld	r10, Z
 8c6:	b1 80       	ldd	r11, Z+1	; 0x01
 8c8:	26 ff       	sbrs	r18, 6
 8ca:	03 c0       	rjmp	.+6      	; 0x8d2 <vfprintf+0x126>
 8cc:	65 2d       	mov	r22, r5
 8ce:	70 e0       	ldi	r23, 0x00	; 0
 8d0:	02 c0       	rjmp	.+4      	; 0x8d6 <vfprintf+0x12a>
 8d2:	6f ef       	ldi	r22, 0xFF	; 255
 8d4:	7f ef       	ldi	r23, 0xFF	; 255
 8d6:	c5 01       	movw	r24, r10
 8d8:	2c 87       	std	Y+12, r18	; 0x0c
 8da:	36 d1       	rcall	.+620    	; 0xb48 <strnlen>
 8dc:	2c 01       	movw	r4, r24
 8de:	83 01       	movw	r16, r6
 8e0:	2c 85       	ldd	r18, Y+12	; 0x0c
 8e2:	2f 77       	andi	r18, 0x7F	; 127
 8e4:	22 2e       	mov	r2, r18
 8e6:	16 c0       	rjmp	.+44     	; 0x914 <vfprintf+0x168>
 8e8:	38 01       	movw	r6, r16
 8ea:	f2 e0       	ldi	r31, 0x02	; 2
 8ec:	6f 0e       	add	r6, r31
 8ee:	71 1c       	adc	r7, r1
 8f0:	f8 01       	movw	r30, r16
 8f2:	a0 80       	ld	r10, Z
 8f4:	b1 80       	ldd	r11, Z+1	; 0x01
 8f6:	26 ff       	sbrs	r18, 6
 8f8:	03 c0       	rjmp	.+6      	; 0x900 <vfprintf+0x154>
 8fa:	65 2d       	mov	r22, r5
 8fc:	70 e0       	ldi	r23, 0x00	; 0
 8fe:	02 c0       	rjmp	.+4      	; 0x904 <vfprintf+0x158>
 900:	6f ef       	ldi	r22, 0xFF	; 255
 902:	7f ef       	ldi	r23, 0xFF	; 255
 904:	c5 01       	movw	r24, r10
 906:	2c 87       	std	Y+12, r18	; 0x0c
 908:	14 d1       	rcall	.+552    	; 0xb32 <strnlen_P>
 90a:	2c 01       	movw	r4, r24
 90c:	2c 85       	ldd	r18, Y+12	; 0x0c
 90e:	20 68       	ori	r18, 0x80	; 128
 910:	22 2e       	mov	r2, r18
 912:	83 01       	movw	r16, r6
 914:	23 fc       	sbrc	r2, 3
 916:	19 c0       	rjmp	.+50     	; 0x94a <vfprintf+0x19e>
 918:	83 2d       	mov	r24, r3
 91a:	90 e0       	ldi	r25, 0x00	; 0
 91c:	48 16       	cp	r4, r24
 91e:	59 06       	cpc	r5, r25
 920:	a0 f4       	brcc	.+40     	; 0x94a <vfprintf+0x19e>
 922:	b7 01       	movw	r22, r14
 924:	80 e2       	ldi	r24, 0x20	; 32
 926:	90 e0       	ldi	r25, 0x00	; 0
 928:	1a d1       	rcall	.+564    	; 0xb5e <fputc>
 92a:	3a 94       	dec	r3
 92c:	f5 cf       	rjmp	.-22     	; 0x918 <vfprintf+0x16c>
 92e:	f5 01       	movw	r30, r10
 930:	27 fc       	sbrc	r2, 7
 932:	85 91       	lpm	r24, Z+
 934:	27 fe       	sbrs	r2, 7
 936:	81 91       	ld	r24, Z+
 938:	5f 01       	movw	r10, r30
 93a:	b7 01       	movw	r22, r14
 93c:	90 e0       	ldi	r25, 0x00	; 0
 93e:	0f d1       	rcall	.+542    	; 0xb5e <fputc>
 940:	31 10       	cpse	r3, r1
 942:	3a 94       	dec	r3
 944:	f1 e0       	ldi	r31, 0x01	; 1
 946:	4f 1a       	sub	r4, r31
 948:	51 08       	sbc	r5, r1
 94a:	41 14       	cp	r4, r1
 94c:	51 04       	cpc	r5, r1
 94e:	79 f7       	brne	.-34     	; 0x92e <vfprintf+0x182>
 950:	de c0       	rjmp	.+444    	; 0xb0e <vfprintf+0x362>
 952:	84 36       	cpi	r24, 0x64	; 100
 954:	11 f0       	breq	.+4      	; 0x95a <vfprintf+0x1ae>
 956:	89 36       	cpi	r24, 0x69	; 105
 958:	31 f5       	brne	.+76     	; 0x9a6 <vfprintf+0x1fa>
 95a:	f8 01       	movw	r30, r16
 95c:	27 ff       	sbrs	r18, 7
 95e:	07 c0       	rjmp	.+14     	; 0x96e <vfprintf+0x1c2>
 960:	60 81       	ld	r22, Z
 962:	71 81       	ldd	r23, Z+1	; 0x01
 964:	82 81       	ldd	r24, Z+2	; 0x02
 966:	93 81       	ldd	r25, Z+3	; 0x03
 968:	0c 5f       	subi	r16, 0xFC	; 252
 96a:	1f 4f       	sbci	r17, 0xFF	; 255
 96c:	08 c0       	rjmp	.+16     	; 0x97e <vfprintf+0x1d2>
 96e:	60 81       	ld	r22, Z
 970:	71 81       	ldd	r23, Z+1	; 0x01
 972:	88 27       	eor	r24, r24
 974:	77 fd       	sbrc	r23, 7
 976:	80 95       	com	r24
 978:	98 2f       	mov	r25, r24
 97a:	0e 5f       	subi	r16, 0xFE	; 254
 97c:	1f 4f       	sbci	r17, 0xFF	; 255
 97e:	2f 76       	andi	r18, 0x6F	; 111
 980:	b2 2e       	mov	r11, r18
 982:	97 ff       	sbrs	r25, 7
 984:	09 c0       	rjmp	.+18     	; 0x998 <vfprintf+0x1ec>
 986:	90 95       	com	r25
 988:	80 95       	com	r24
 98a:	70 95       	com	r23
 98c:	61 95       	neg	r22
 98e:	7f 4f       	sbci	r23, 0xFF	; 255
 990:	8f 4f       	sbci	r24, 0xFF	; 255
 992:	9f 4f       	sbci	r25, 0xFF	; 255
 994:	20 68       	ori	r18, 0x80	; 128
 996:	b2 2e       	mov	r11, r18
 998:	2a e0       	ldi	r18, 0x0A	; 10
 99a:	30 e0       	ldi	r19, 0x00	; 0
 99c:	a4 01       	movw	r20, r8
 99e:	11 d1       	rcall	.+546    	; 0xbc2 <__ultoa_invert>
 9a0:	a8 2e       	mov	r10, r24
 9a2:	a8 18       	sub	r10, r8
 9a4:	43 c0       	rjmp	.+134    	; 0xa2c <vfprintf+0x280>
 9a6:	85 37       	cpi	r24, 0x75	; 117
 9a8:	29 f4       	brne	.+10     	; 0x9b4 <vfprintf+0x208>
 9aa:	2f 7e       	andi	r18, 0xEF	; 239
 9ac:	b2 2e       	mov	r11, r18
 9ae:	2a e0       	ldi	r18, 0x0A	; 10
 9b0:	30 e0       	ldi	r19, 0x00	; 0
 9b2:	25 c0       	rjmp	.+74     	; 0x9fe <vfprintf+0x252>
 9b4:	f2 2f       	mov	r31, r18
 9b6:	f9 7f       	andi	r31, 0xF9	; 249
 9b8:	bf 2e       	mov	r11, r31
 9ba:	8f 36       	cpi	r24, 0x6F	; 111
 9bc:	c1 f0       	breq	.+48     	; 0x9ee <vfprintf+0x242>
 9be:	18 f4       	brcc	.+6      	; 0x9c6 <vfprintf+0x21a>
 9c0:	88 35       	cpi	r24, 0x58	; 88
 9c2:	79 f0       	breq	.+30     	; 0x9e2 <vfprintf+0x236>
 9c4:	ad c0       	rjmp	.+346    	; 0xb20 <vfprintf+0x374>
 9c6:	80 37       	cpi	r24, 0x70	; 112
 9c8:	19 f0       	breq	.+6      	; 0x9d0 <vfprintf+0x224>
 9ca:	88 37       	cpi	r24, 0x78	; 120
 9cc:	21 f0       	breq	.+8      	; 0x9d6 <vfprintf+0x22a>
 9ce:	a8 c0       	rjmp	.+336    	; 0xb20 <vfprintf+0x374>
 9d0:	2f 2f       	mov	r18, r31
 9d2:	20 61       	ori	r18, 0x10	; 16
 9d4:	b2 2e       	mov	r11, r18
 9d6:	b4 fe       	sbrs	r11, 4
 9d8:	0d c0       	rjmp	.+26     	; 0x9f4 <vfprintf+0x248>
 9da:	8b 2d       	mov	r24, r11
 9dc:	84 60       	ori	r24, 0x04	; 4
 9de:	b8 2e       	mov	r11, r24
 9e0:	09 c0       	rjmp	.+18     	; 0x9f4 <vfprintf+0x248>
 9e2:	24 ff       	sbrs	r18, 4
 9e4:	0a c0       	rjmp	.+20     	; 0x9fa <vfprintf+0x24e>
 9e6:	9f 2f       	mov	r25, r31
 9e8:	96 60       	ori	r25, 0x06	; 6
 9ea:	b9 2e       	mov	r11, r25
 9ec:	06 c0       	rjmp	.+12     	; 0x9fa <vfprintf+0x24e>
 9ee:	28 e0       	ldi	r18, 0x08	; 8
 9f0:	30 e0       	ldi	r19, 0x00	; 0
 9f2:	05 c0       	rjmp	.+10     	; 0x9fe <vfprintf+0x252>
 9f4:	20 e1       	ldi	r18, 0x10	; 16
 9f6:	30 e0       	ldi	r19, 0x00	; 0
 9f8:	02 c0       	rjmp	.+4      	; 0x9fe <vfprintf+0x252>
 9fa:	20 e1       	ldi	r18, 0x10	; 16
 9fc:	32 e0       	ldi	r19, 0x02	; 2
 9fe:	f8 01       	movw	r30, r16
 a00:	b7 fe       	sbrs	r11, 7
 a02:	07 c0       	rjmp	.+14     	; 0xa12 <vfprintf+0x266>
 a04:	60 81       	ld	r22, Z
 a06:	71 81       	ldd	r23, Z+1	; 0x01
 a08:	82 81       	ldd	r24, Z+2	; 0x02
 a0a:	93 81       	ldd	r25, Z+3	; 0x03
 a0c:	0c 5f       	subi	r16, 0xFC	; 252
 a0e:	1f 4f       	sbci	r17, 0xFF	; 255
 a10:	06 c0       	rjmp	.+12     	; 0xa1e <vfprintf+0x272>
 a12:	60 81       	ld	r22, Z
 a14:	71 81       	ldd	r23, Z+1	; 0x01
 a16:	80 e0       	ldi	r24, 0x00	; 0
 a18:	90 e0       	ldi	r25, 0x00	; 0
 a1a:	0e 5f       	subi	r16, 0xFE	; 254
 a1c:	1f 4f       	sbci	r17, 0xFF	; 255
 a1e:	a4 01       	movw	r20, r8
 a20:	d0 d0       	rcall	.+416    	; 0xbc2 <__ultoa_invert>
 a22:	a8 2e       	mov	r10, r24
 a24:	a8 18       	sub	r10, r8
 a26:	fb 2d       	mov	r31, r11
 a28:	ff 77       	andi	r31, 0x7F	; 127
 a2a:	bf 2e       	mov	r11, r31
 a2c:	b6 fe       	sbrs	r11, 6
 a2e:	0b c0       	rjmp	.+22     	; 0xa46 <vfprintf+0x29a>
 a30:	2b 2d       	mov	r18, r11
 a32:	2e 7f       	andi	r18, 0xFE	; 254
 a34:	a5 14       	cp	r10, r5
 a36:	50 f4       	brcc	.+20     	; 0xa4c <vfprintf+0x2a0>
 a38:	b4 fe       	sbrs	r11, 4
 a3a:	0a c0       	rjmp	.+20     	; 0xa50 <vfprintf+0x2a4>
 a3c:	b2 fc       	sbrc	r11, 2
 a3e:	08 c0       	rjmp	.+16     	; 0xa50 <vfprintf+0x2a4>
 a40:	2b 2d       	mov	r18, r11
 a42:	2e 7e       	andi	r18, 0xEE	; 238
 a44:	05 c0       	rjmp	.+10     	; 0xa50 <vfprintf+0x2a4>
 a46:	7a 2c       	mov	r7, r10
 a48:	2b 2d       	mov	r18, r11
 a4a:	03 c0       	rjmp	.+6      	; 0xa52 <vfprintf+0x2a6>
 a4c:	7a 2c       	mov	r7, r10
 a4e:	01 c0       	rjmp	.+2      	; 0xa52 <vfprintf+0x2a6>
 a50:	75 2c       	mov	r7, r5
 a52:	24 ff       	sbrs	r18, 4
 a54:	0d c0       	rjmp	.+26     	; 0xa70 <vfprintf+0x2c4>
 a56:	fe 01       	movw	r30, r28
 a58:	ea 0d       	add	r30, r10
 a5a:	f1 1d       	adc	r31, r1
 a5c:	80 81       	ld	r24, Z
 a5e:	80 33       	cpi	r24, 0x30	; 48
 a60:	11 f4       	brne	.+4      	; 0xa66 <vfprintf+0x2ba>
 a62:	29 7e       	andi	r18, 0xE9	; 233
 a64:	09 c0       	rjmp	.+18     	; 0xa78 <vfprintf+0x2cc>
 a66:	22 ff       	sbrs	r18, 2
 a68:	06 c0       	rjmp	.+12     	; 0xa76 <vfprintf+0x2ca>
 a6a:	73 94       	inc	r7
 a6c:	73 94       	inc	r7
 a6e:	04 c0       	rjmp	.+8      	; 0xa78 <vfprintf+0x2cc>
 a70:	82 2f       	mov	r24, r18
 a72:	86 78       	andi	r24, 0x86	; 134
 a74:	09 f0       	breq	.+2      	; 0xa78 <vfprintf+0x2cc>
 a76:	73 94       	inc	r7
 a78:	23 fd       	sbrc	r18, 3
 a7a:	12 c0       	rjmp	.+36     	; 0xaa0 <vfprintf+0x2f4>
 a7c:	20 ff       	sbrs	r18, 0
 a7e:	06 c0       	rjmp	.+12     	; 0xa8c <vfprintf+0x2e0>
 a80:	5a 2c       	mov	r5, r10
 a82:	73 14       	cp	r7, r3
 a84:	18 f4       	brcc	.+6      	; 0xa8c <vfprintf+0x2e0>
 a86:	53 0c       	add	r5, r3
 a88:	57 18       	sub	r5, r7
 a8a:	73 2c       	mov	r7, r3
 a8c:	73 14       	cp	r7, r3
 a8e:	60 f4       	brcc	.+24     	; 0xaa8 <vfprintf+0x2fc>
 a90:	b7 01       	movw	r22, r14
 a92:	80 e2       	ldi	r24, 0x20	; 32
 a94:	90 e0       	ldi	r25, 0x00	; 0
 a96:	2c 87       	std	Y+12, r18	; 0x0c
 a98:	62 d0       	rcall	.+196    	; 0xb5e <fputc>
 a9a:	73 94       	inc	r7
 a9c:	2c 85       	ldd	r18, Y+12	; 0x0c
 a9e:	f6 cf       	rjmp	.-20     	; 0xa8c <vfprintf+0x2e0>
 aa0:	73 14       	cp	r7, r3
 aa2:	10 f4       	brcc	.+4      	; 0xaa8 <vfprintf+0x2fc>
 aa4:	37 18       	sub	r3, r7
 aa6:	01 c0       	rjmp	.+2      	; 0xaaa <vfprintf+0x2fe>
 aa8:	31 2c       	mov	r3, r1
 aaa:	24 ff       	sbrs	r18, 4
 aac:	11 c0       	rjmp	.+34     	; 0xad0 <vfprintf+0x324>
 aae:	b7 01       	movw	r22, r14
 ab0:	80 e3       	ldi	r24, 0x30	; 48
 ab2:	90 e0       	ldi	r25, 0x00	; 0
 ab4:	2c 87       	std	Y+12, r18	; 0x0c
 ab6:	53 d0       	rcall	.+166    	; 0xb5e <fputc>
 ab8:	2c 85       	ldd	r18, Y+12	; 0x0c
 aba:	22 ff       	sbrs	r18, 2
 abc:	16 c0       	rjmp	.+44     	; 0xaea <vfprintf+0x33e>
 abe:	21 ff       	sbrs	r18, 1
 ac0:	03 c0       	rjmp	.+6      	; 0xac8 <vfprintf+0x31c>
 ac2:	88 e5       	ldi	r24, 0x58	; 88
 ac4:	90 e0       	ldi	r25, 0x00	; 0
 ac6:	02 c0       	rjmp	.+4      	; 0xacc <vfprintf+0x320>
 ac8:	88 e7       	ldi	r24, 0x78	; 120
 aca:	90 e0       	ldi	r25, 0x00	; 0
 acc:	b7 01       	movw	r22, r14
 ace:	0c c0       	rjmp	.+24     	; 0xae8 <vfprintf+0x33c>
 ad0:	82 2f       	mov	r24, r18
 ad2:	86 78       	andi	r24, 0x86	; 134
 ad4:	51 f0       	breq	.+20     	; 0xaea <vfprintf+0x33e>
 ad6:	21 fd       	sbrc	r18, 1
 ad8:	02 c0       	rjmp	.+4      	; 0xade <vfprintf+0x332>
 ada:	80 e2       	ldi	r24, 0x20	; 32
 adc:	01 c0       	rjmp	.+2      	; 0xae0 <vfprintf+0x334>
 ade:	8b e2       	ldi	r24, 0x2B	; 43
 ae0:	27 fd       	sbrc	r18, 7
 ae2:	8d e2       	ldi	r24, 0x2D	; 45
 ae4:	b7 01       	movw	r22, r14
 ae6:	90 e0       	ldi	r25, 0x00	; 0
 ae8:	3a d0       	rcall	.+116    	; 0xb5e <fputc>
 aea:	a5 14       	cp	r10, r5
 aec:	30 f4       	brcc	.+12     	; 0xafa <vfprintf+0x34e>
 aee:	b7 01       	movw	r22, r14
 af0:	80 e3       	ldi	r24, 0x30	; 48
 af2:	90 e0       	ldi	r25, 0x00	; 0
 af4:	34 d0       	rcall	.+104    	; 0xb5e <fputc>
 af6:	5a 94       	dec	r5
 af8:	f8 cf       	rjmp	.-16     	; 0xaea <vfprintf+0x33e>
 afa:	aa 94       	dec	r10
 afc:	f4 01       	movw	r30, r8
 afe:	ea 0d       	add	r30, r10
 b00:	f1 1d       	adc	r31, r1
 b02:	80 81       	ld	r24, Z
 b04:	b7 01       	movw	r22, r14
 b06:	90 e0       	ldi	r25, 0x00	; 0
 b08:	2a d0       	rcall	.+84     	; 0xb5e <fputc>
 b0a:	a1 10       	cpse	r10, r1
 b0c:	f6 cf       	rjmp	.-20     	; 0xafa <vfprintf+0x34e>
 b0e:	33 20       	and	r3, r3
 b10:	09 f4       	brne	.+2      	; 0xb14 <vfprintf+0x368>
 b12:	5d ce       	rjmp	.-838    	; 0x7ce <vfprintf+0x22>
 b14:	b7 01       	movw	r22, r14
 b16:	80 e2       	ldi	r24, 0x20	; 32
 b18:	90 e0       	ldi	r25, 0x00	; 0
 b1a:	21 d0       	rcall	.+66     	; 0xb5e <fputc>
 b1c:	3a 94       	dec	r3
 b1e:	f7 cf       	rjmp	.-18     	; 0xb0e <vfprintf+0x362>
 b20:	f7 01       	movw	r30, r14
 b22:	86 81       	ldd	r24, Z+6	; 0x06
 b24:	97 81       	ldd	r25, Z+7	; 0x07
 b26:	02 c0       	rjmp	.+4      	; 0xb2c <vfprintf+0x380>
 b28:	8f ef       	ldi	r24, 0xFF	; 255
 b2a:	9f ef       	ldi	r25, 0xFF	; 255
 b2c:	2c 96       	adiw	r28, 0x0c	; 12
 b2e:	e2 e1       	ldi	r30, 0x12	; 18
 b30:	c2 c0       	rjmp	.+388    	; 0xcb6 <__epilogue_restores__>

00000b32 <strnlen_P>:
 b32:	fc 01       	movw	r30, r24
 b34:	05 90       	lpm	r0, Z+
 b36:	61 50       	subi	r22, 0x01	; 1
 b38:	70 40       	sbci	r23, 0x00	; 0
 b3a:	01 10       	cpse	r0, r1
 b3c:	d8 f7       	brcc	.-10     	; 0xb34 <strnlen_P+0x2>
 b3e:	80 95       	com	r24
 b40:	90 95       	com	r25
 b42:	8e 0f       	add	r24, r30
 b44:	9f 1f       	adc	r25, r31
 b46:	08 95       	ret

00000b48 <strnlen>:
 b48:	fc 01       	movw	r30, r24
 b4a:	61 50       	subi	r22, 0x01	; 1
 b4c:	70 40       	sbci	r23, 0x00	; 0
 b4e:	01 90       	ld	r0, Z+
 b50:	01 10       	cpse	r0, r1
 b52:	d8 f7       	brcc	.-10     	; 0xb4a <strnlen+0x2>
 b54:	80 95       	com	r24
 b56:	90 95       	com	r25
 b58:	8e 0f       	add	r24, r30
 b5a:	9f 1f       	adc	r25, r31
 b5c:	08 95       	ret

00000b5e <fputc>:
 b5e:	0f 93       	push	r16
 b60:	1f 93       	push	r17
 b62:	cf 93       	push	r28
 b64:	df 93       	push	r29
 b66:	18 2f       	mov	r17, r24
 b68:	09 2f       	mov	r16, r25
 b6a:	eb 01       	movw	r28, r22
 b6c:	8b 81       	ldd	r24, Y+3	; 0x03
 b6e:	81 fd       	sbrc	r24, 1
 b70:	03 c0       	rjmp	.+6      	; 0xb78 <fputc+0x1a>
 b72:	8f ef       	ldi	r24, 0xFF	; 255
 b74:	9f ef       	ldi	r25, 0xFF	; 255
 b76:	20 c0       	rjmp	.+64     	; 0xbb8 <fputc+0x5a>
 b78:	82 ff       	sbrs	r24, 2
 b7a:	10 c0       	rjmp	.+32     	; 0xb9c <fputc+0x3e>
 b7c:	4e 81       	ldd	r20, Y+6	; 0x06
 b7e:	5f 81       	ldd	r21, Y+7	; 0x07
 b80:	2c 81       	ldd	r18, Y+4	; 0x04
 b82:	3d 81       	ldd	r19, Y+5	; 0x05
 b84:	42 17       	cp	r20, r18
 b86:	53 07       	cpc	r21, r19
 b88:	7c f4       	brge	.+30     	; 0xba8 <fputc+0x4a>
 b8a:	e8 81       	ld	r30, Y
 b8c:	f9 81       	ldd	r31, Y+1	; 0x01
 b8e:	9f 01       	movw	r18, r30
 b90:	2f 5f       	subi	r18, 0xFF	; 255
 b92:	3f 4f       	sbci	r19, 0xFF	; 255
 b94:	39 83       	std	Y+1, r19	; 0x01
 b96:	28 83       	st	Y, r18
 b98:	10 83       	st	Z, r17
 b9a:	06 c0       	rjmp	.+12     	; 0xba8 <fputc+0x4a>
 b9c:	e8 85       	ldd	r30, Y+8	; 0x08
 b9e:	f9 85       	ldd	r31, Y+9	; 0x09
 ba0:	81 2f       	mov	r24, r17
 ba2:	09 95       	icall
 ba4:	89 2b       	or	r24, r25
 ba6:	29 f7       	brne	.-54     	; 0xb72 <fputc+0x14>
 ba8:	2e 81       	ldd	r18, Y+6	; 0x06
 baa:	3f 81       	ldd	r19, Y+7	; 0x07
 bac:	2f 5f       	subi	r18, 0xFF	; 255
 bae:	3f 4f       	sbci	r19, 0xFF	; 255
 bb0:	3f 83       	std	Y+7, r19	; 0x07
 bb2:	2e 83       	std	Y+6, r18	; 0x06
 bb4:	81 2f       	mov	r24, r17
 bb6:	90 2f       	mov	r25, r16
 bb8:	df 91       	pop	r29
 bba:	cf 91       	pop	r28
 bbc:	1f 91       	pop	r17
 bbe:	0f 91       	pop	r16
 bc0:	08 95       	ret

00000bc2 <__ultoa_invert>:
 bc2:	fa 01       	movw	r30, r20
 bc4:	aa 27       	eor	r26, r26
 bc6:	28 30       	cpi	r18, 0x08	; 8
 bc8:	51 f1       	breq	.+84     	; 0xc1e <__ultoa_invert+0x5c>
 bca:	20 31       	cpi	r18, 0x10	; 16
 bcc:	81 f1       	breq	.+96     	; 0xc2e <__ultoa_invert+0x6c>
 bce:	e8 94       	clt
 bd0:	6f 93       	push	r22
 bd2:	6e 7f       	andi	r22, 0xFE	; 254
 bd4:	6e 5f       	subi	r22, 0xFE	; 254
 bd6:	7f 4f       	sbci	r23, 0xFF	; 255
 bd8:	8f 4f       	sbci	r24, 0xFF	; 255
 bda:	9f 4f       	sbci	r25, 0xFF	; 255
 bdc:	af 4f       	sbci	r26, 0xFF	; 255
 bde:	b1 e0       	ldi	r27, 0x01	; 1
 be0:	3e d0       	rcall	.+124    	; 0xc5e <__ultoa_invert+0x9c>
 be2:	b4 e0       	ldi	r27, 0x04	; 4
 be4:	3c d0       	rcall	.+120    	; 0xc5e <__ultoa_invert+0x9c>
 be6:	67 0f       	add	r22, r23
 be8:	78 1f       	adc	r23, r24
 bea:	89 1f       	adc	r24, r25
 bec:	9a 1f       	adc	r25, r26
 bee:	a1 1d       	adc	r26, r1
 bf0:	68 0f       	add	r22, r24
 bf2:	79 1f       	adc	r23, r25
 bf4:	8a 1f       	adc	r24, r26
 bf6:	91 1d       	adc	r25, r1
 bf8:	a1 1d       	adc	r26, r1
 bfa:	6a 0f       	add	r22, r26
 bfc:	71 1d       	adc	r23, r1
 bfe:	81 1d       	adc	r24, r1
 c00:	91 1d       	adc	r25, r1
 c02:	a1 1d       	adc	r26, r1
 c04:	20 d0       	rcall	.+64     	; 0xc46 <__ultoa_invert+0x84>
 c06:	09 f4       	brne	.+2      	; 0xc0a <__ultoa_invert+0x48>
 c08:	68 94       	set
 c0a:	3f 91       	pop	r19
 c0c:	2a e0       	ldi	r18, 0x0A	; 10
 c0e:	26 9f       	mul	r18, r22
 c10:	11 24       	eor	r1, r1
 c12:	30 19       	sub	r19, r0
 c14:	30 5d       	subi	r19, 0xD0	; 208
 c16:	31 93       	st	Z+, r19
 c18:	de f6       	brtc	.-74     	; 0xbd0 <__ultoa_invert+0xe>
 c1a:	cf 01       	movw	r24, r30
 c1c:	08 95       	ret
 c1e:	46 2f       	mov	r20, r22
 c20:	47 70       	andi	r20, 0x07	; 7
 c22:	40 5d       	subi	r20, 0xD0	; 208
 c24:	41 93       	st	Z+, r20
 c26:	b3 e0       	ldi	r27, 0x03	; 3
 c28:	0f d0       	rcall	.+30     	; 0xc48 <__ultoa_invert+0x86>
 c2a:	c9 f7       	brne	.-14     	; 0xc1e <__ultoa_invert+0x5c>
 c2c:	f6 cf       	rjmp	.-20     	; 0xc1a <__ultoa_invert+0x58>
 c2e:	46 2f       	mov	r20, r22
 c30:	4f 70       	andi	r20, 0x0F	; 15
 c32:	40 5d       	subi	r20, 0xD0	; 208
 c34:	4a 33       	cpi	r20, 0x3A	; 58
 c36:	18 f0       	brcs	.+6      	; 0xc3e <__ultoa_invert+0x7c>
 c38:	49 5d       	subi	r20, 0xD9	; 217
 c3a:	31 fd       	sbrc	r19, 1
 c3c:	40 52       	subi	r20, 0x20	; 32
 c3e:	41 93       	st	Z+, r20
 c40:	02 d0       	rcall	.+4      	; 0xc46 <__ultoa_invert+0x84>
 c42:	a9 f7       	brne	.-22     	; 0xc2e <__ultoa_invert+0x6c>
 c44:	ea cf       	rjmp	.-44     	; 0xc1a <__ultoa_invert+0x58>
 c46:	b4 e0       	ldi	r27, 0x04	; 4
 c48:	a6 95       	lsr	r26
 c4a:	97 95       	ror	r25
 c4c:	87 95       	ror	r24
 c4e:	77 95       	ror	r23
 c50:	67 95       	ror	r22
 c52:	ba 95       	dec	r27
 c54:	c9 f7       	brne	.-14     	; 0xc48 <__ultoa_invert+0x86>
 c56:	00 97       	sbiw	r24, 0x00	; 0
 c58:	61 05       	cpc	r22, r1
 c5a:	71 05       	cpc	r23, r1
 c5c:	08 95       	ret
 c5e:	9b 01       	movw	r18, r22
 c60:	ac 01       	movw	r20, r24
 c62:	0a 2e       	mov	r0, r26
 c64:	06 94       	lsr	r0
 c66:	57 95       	ror	r21
 c68:	47 95       	ror	r20
 c6a:	37 95       	ror	r19
 c6c:	27 95       	ror	r18
 c6e:	ba 95       	dec	r27
 c70:	c9 f7       	brne	.-14     	; 0xc64 <__ultoa_invert+0xa2>
 c72:	62 0f       	add	r22, r18
 c74:	73 1f       	adc	r23, r19
 c76:	84 1f       	adc	r24, r20
 c78:	95 1f       	adc	r25, r21
 c7a:	a0 1d       	adc	r26, r0
 c7c:	08 95       	ret

00000c7e <__prologue_saves__>:
 c7e:	2f 92       	push	r2
 c80:	3f 92       	push	r3
 c82:	4f 92       	push	r4
 c84:	5f 92       	push	r5
 c86:	6f 92       	push	r6
 c88:	7f 92       	push	r7
 c8a:	8f 92       	push	r8
 c8c:	9f 92       	push	r9
 c8e:	af 92       	push	r10
 c90:	bf 92       	push	r11
 c92:	cf 92       	push	r12
 c94:	df 92       	push	r13
 c96:	ef 92       	push	r14
 c98:	ff 92       	push	r15
 c9a:	0f 93       	push	r16
 c9c:	1f 93       	push	r17
 c9e:	cf 93       	push	r28
 ca0:	df 93       	push	r29
 ca2:	cd b7       	in	r28, 0x3d	; 61
 ca4:	de b7       	in	r29, 0x3e	; 62
 ca6:	ca 1b       	sub	r28, r26
 ca8:	db 0b       	sbc	r29, r27
 caa:	0f b6       	in	r0, 0x3f	; 63
 cac:	f8 94       	cli
 cae:	de bf       	out	0x3e, r29	; 62
 cb0:	0f be       	out	0x3f, r0	; 63
 cb2:	cd bf       	out	0x3d, r28	; 61
 cb4:	09 94       	ijmp

00000cb6 <__epilogue_restores__>:
 cb6:	2a 88       	ldd	r2, Y+18	; 0x12
 cb8:	39 88       	ldd	r3, Y+17	; 0x11
 cba:	48 88       	ldd	r4, Y+16	; 0x10
 cbc:	5f 84       	ldd	r5, Y+15	; 0x0f
 cbe:	6e 84       	ldd	r6, Y+14	; 0x0e
 cc0:	7d 84       	ldd	r7, Y+13	; 0x0d
 cc2:	8c 84       	ldd	r8, Y+12	; 0x0c
 cc4:	9b 84       	ldd	r9, Y+11	; 0x0b
 cc6:	aa 84       	ldd	r10, Y+10	; 0x0a
 cc8:	b9 84       	ldd	r11, Y+9	; 0x09
 cca:	c8 84       	ldd	r12, Y+8	; 0x08
 ccc:	df 80       	ldd	r13, Y+7	; 0x07
 cce:	ee 80       	ldd	r14, Y+6	; 0x06
 cd0:	fd 80       	ldd	r15, Y+5	; 0x05
 cd2:	0c 81       	ldd	r16, Y+4	; 0x04
 cd4:	1b 81       	ldd	r17, Y+3	; 0x03
 cd6:	aa 81       	ldd	r26, Y+2	; 0x02
 cd8:	b9 81       	ldd	r27, Y+1	; 0x01
 cda:	ce 0f       	add	r28, r30
 cdc:	d1 1d       	adc	r29, r1
 cde:	0f b6       	in	r0, 0x3f	; 63
 ce0:	f8 94       	cli
 ce2:	de bf       	out	0x3e, r29	; 62
 ce4:	0f be       	out	0x3f, r0	; 63
 ce6:	cd bf       	out	0x3d, r28	; 61
 ce8:	ed 01       	movw	r28, r26
 cea:	08 95       	ret

00000cec <_exit>:
 cec:	f8 94       	cli

00000cee <__stop_program>:
 cee:	ff cf       	rjmp	.-2      	; 0xcee <__stop_program>
